ccopy_reg
_reconstructor
p0
(cchemdataextractor.relex.snowball
Snowball
p1
c__builtin__
object
p2
Ntp3
Rp4
(dp5
S'suffix_weight'
p6
F0.1
sS'save_file_name'
p7
S'curie_temperatures'
p8
sS'relationship'
p9
g0
(cchemdataextractor.relex.relationship
ChemicalRelationship
p10
g2
Ntp11
Rp12
(dp13
S'entities'
p14
(lp15
g0
(cchemdataextractor.parse.elements
And
p16
g2
Ntp17
Rp18
(dp19
S'exprs'
p20
(lp21
g0
(cchemdataextractor.parse.elements
Optional
p22
g2
Ntp23
Rp24
(dp25
S'expr'
p26
g0
(g16
g2
Ntp27
Rp28
(dp29
g20
(lp30
g0
(cchemdataextractor.parse.elements
Not
p31
g2
Ntp32
Rp33
(dp34
g26
g0
(cchemdataextractor.parse.elements
Tag
p35
g2
Ntp36
Rp37
(dp38
S'match'
p39
VB-CM
p40
sS'name'
p41
NsS'actions'
p42
(lp43
sS'streamlined'
p44
I01
sbsg41
Nsg42
(lp45
sg44
I01
sbag0
(cchemdataextractor.parse.elements
Regex
p46
g2
Ntp47
Rp48
(dp49
S'regex'
p50
cre
_compile
p51
(V^(deuterated|triflated|butylated|brominated|acetylated|twisted)$
p52
I2
tp53
Rp54
sS'group'
p55
Nsg41
NsS'pattern'
p56
g52
sg42
(lp57
sg44
I01
sbasg41
Nsg42
(lp58
sg44
I01
sbsg41
Nsg42
(lp59
sg44
I01
sbag0
(g31
g2
Ntp60
Rp61
(dp62
g26
g0
(cchemdataextractor.parse.elements
First
p63
g2
Ntp64
Rp65
(dp66
g20
(lp67
g0
(g46
g2
Ntp68
Rp69
(dp70
g50
g51
(V^S\u005cd+$
p71
I0
tp72
Rp73
sg55
Nsg41
Nsg56
V^S\u005cd+$
p74
sg42
(lp75
sg44
I01
sbag0
(cchemdataextractor.parse.elements
IWord
p76
g2
Ntp77
Rp78
(dp79
g39
Vmorin
p80
sg41
Nsg42
(lp81
sg44
I01
sbag0
(g76
g2
Ntp82
Rp83
(dp84
g39
Vre
p85
sg41
Nsg42
(lp86
sg44
I01
sbag0
(g46
g2
Ntp87
Rp88
(dp89
g50
g51
(V^[P|p]erovskite(s)?
p90
I0
tp91
Rp92
sg55
Nsg41
Nsg56
g90
sg42
(lp93
sg44
I01
sbag0
(g46
g2
Ntp94
Rp95
(dp96
g50
g51
(V^[o|O]xide(s)?$
p97
I0
tp98
Rp99
sg55
Nsg41
Nsg56
g97
sg42
(lp100
sg44
I01
sbag0
(g76
g2
Ntp101
Rp102
(dp103
g39
Voxide
p104
sg41
Nsg42
(lp105
sg44
I01
sbag0
(g76
g2
Ntp106
Rp107
(dp108
g39
Voxy-anions
p109
sg41
Nsg42
(lp110
sg44
I01
sbag0
(g76
g2
Ntp111
Rp112
(dp113
g39
Voxy-anion
p114
sg41
Nsg42
(lp115
sg44
I01
sbag0
(g76
g2
Ntp116
Rp117
(dp118
g39
Vtransition-metal
p119
sg41
Nsg42
(lp120
sg44
I01
sbag0
(g76
g2
Ntp121
Rp122
(dp123
g39
Vrare-earth
p124
sg41
Nsg42
(lp125
sg44
I01
sbag0
(g46
g2
Ntp126
Rp127
(dp128
g50
g51
(V^CO$
p129
I0
tp130
Rp131
sg55
Nsg41
Nsg56
g129
sg42
(lp132
sg44
I01
sbag0
(g76
g2
Ntp133
Rp134
(dp135
g39
Vferrous
p136
sg41
Nsg42
(lp137
sg44
I01
sbag0
(g76
g2
Ntp138
Rp139
(dp140
g39
Vferro-
p141
sg41
Nsg42
(lp142
sg44
I01
sbag0
(g76
g2
Ntp143
Rp144
(dp145
g39
Vferro
p146
sg41
Nsg42
(lp147
sg44
I01
sbag0
(g76
g2
Ntp148
Rp149
(dp150
g39
Vferri-
p151
sg41
Nsg42
(lp152
sg44
I01
sbag0
(g16
g2
Ntp153
Rp154
(dp155
g20
(lp156
g0
(g63
g2
Ntp157
Rp158
(dp159
g20
(lp160
g0
(g76
g2
Ntp161
Rp162
(dp163
g39
Vti
p164
sg41
Nsg42
(lp165
sg44
I01
sbag0
(g76
g2
Ntp166
Rp167
(dp168
g39
Vfe
p169
sg41
Nsg42
(lp170
sg44
I01
sbag0
(g76
g2
Ntp171
Rp172
(dp173
g39
Vmn
p174
sg41
Nsg42
(lp175
sg44
I01
sbasg41
Nsg42
(lp176
sg44
I01
sbag0
(g46
g2
Ntp177
Rp178
(dp179
g50
g51
(V\u005c-
p180
I0
tp181
Rp182
sg55
Nsg41
Nsg56
V\u005c-
p183
sg42
(lp184
sg44
I01
sbag0
(g63
g2
Ntp185
Rp186
(dp187
g20
(lp188
g0
(g76
g2
Ntp189
Rp190
(dp191
g39
Vpoor
p192
sg41
Nsg42
(lp193
sg44
I01
sbag0
(g76
g2
Ntp194
Rp195
(dp196
g39
Vrich
p197
sg41
Nsg42
(lp198
sg44
I01
sbasg41
Nsg42
(lp199
sg44
I01
sbasg41
Nsg42
(lp200
sg44
I01
sbag0
(g16
g2
Ntp201
Rp202
(dp203
g20
(lp204
g0
(g76
g2
Ntp205
Rp206
(dp207
g39
Vferroelectric
p208
sg41
Nsg42
(lp209
sg44
I01
sbag0
(g76
g2
Ntp210
Rp211
(dp212
g39
Voxides
p213
sg41
Nsg42
(lp214
sg44
I01
sbasg41
Nsg42
(lp215
sg44
I01
sbag0
(g16
g2
Ntp216
Rp217
(dp218
g20
(lp219
g0
(g76
g2
Ntp220
Rp221
(dp222
g39
V[
p223
sg41
Nsg42
(lp224
sg44
I01
sbag0
(cchemdataextractor.parse.elements
OneOrMore
p225
g2
Ntp226
Rp227
(dp228
g26
g0
(g46
g2
Ntp229
Rp230
(dp231
g50
g51
(V^\u005cd.?$
p232
I0
tp233
Rp234
sg55
Nsg41
Nsg56
V^\u005cd.?$
p235
sg42
(lp236
sg44
I01
sbsg41
Nsg42
(lp237
sg44
I01
sbag0
(g76
g2
Ntp238
Rp239
(dp240
g39
V]
p241
sg41
Nsg42
(lp242
sg44
I01
sbasg41
Nsg42
(lp243
sg44
I01
sbag0
(g76
g2
Ntp244
Rp245
(dp246
g39
Vferromagnets
p247
sg41
Nsg42
(lp248
sg44
I01
sbag0
(g76
g2
Ntp249
Rp250
(dp251
g39
Vantiferromagnets
p252
sg41
Nsg42
(lp253
sg44
I01
sbag0
(g76
g2
Ntp254
Rp255
(dp256
g39
Vferromagnet
p257
sg41
Nsg42
(lp258
sg44
I01
sbag0
(g76
g2
Ntp259
Rp260
(dp261
g39
g252
sg41
Nsg42
(lp262
sg44
I01
sbasg41
Nsg42
(lp263
sg44
I01
sbsg41
Nsg42
(lp264
sg44
I01
sbag0
(g22
g2
Ntp265
Rp266
(dp267
g26
g0
(g63
g2
Ntp268
Rp269
(dp270
g20
(lp271
g0
(g76
g2
Ntp272
Rp273
(dp274
g39
Vbulk
p275
sg41
Nsg42
(lp276
sg44
I01
sbag0
(g76
g2
Ntp277
Rp278
(dp279
g39
Vcrystalline
p280
sg41
Nsg42
(lp281
sg44
I01
sbag0
(g76
g2
Ntp282
Rp283
(dp284
g39
Vamorphous
p285
sg41
Nsg42
(lp286
sg44
I01
sbag0
(g76
g2
Ntp287
Rp288
(dp289
g39
Vpure
p290
sg41
Nsg42
(lp291
sg44
I01
sbag0
(g76
g2
Ntp292
Rp293
(dp294
g39
Vpowdered
p295
sg41
Nsg42
(lp296
sg44
I01
sbag0
(g16
g2
Ntp297
Rp298
(dp299
g20
(lp300
g0
(g22
g2
Ntp301
Rp302
(dp303
g26
g0
(g16
g2
Ntp304
Rp305
(dp306
g20
(lp307
g0
(g46
g2
Ntp308
Rp309
(dp310
g50
g51
(V^[A-Z][a-z]?$
p311
I0
tp312
Rp313
sg55
Nsg41
Nsg56
g311
sg42
(lp314
sg44
I01
sbag0
(g46
g2
Ntp315
Rp316
(dp317
g50
g182
sg55
Nsg41
Nsg56
V\u005c-
p318
sg42
(lp319
sg44
I01
sbasg41
Nsg42
(lp320
sg44
I01
sbsg41
Nsg42
(lp321
sg44
I01
sbag0
(g76
g2
Ntp322
Rp323
(dp324
g39
Vdoped
p325
sg41
Nsg42
(lp326
sg44
I01
sbasg41
Nsg42
(lp327
sg44
I01
sbasg41
Nsg42
(lp328
sg44
I01
sbsg41
Nsg42
(lp329
sg44
I01
sbag0
(g63
g2
Ntp330
Rp331
(dp332
g20
(lp333
g0
(g16
g2
Ntp334
Rp335
(dp336
g20
(lp337
g0
(cchemdataextractor.parse.elements
Hide
p338
g2
Ntp339
Rp340
(dp341
g26
g0
(g16
g2
Ntp342
Rp343
(dp344
g20
(lp345
g0
(cchemdataextractor.parse.elements
Start
p346
g2
Ntp347
Rp348
(dp349
g41
Nsg42
(lp350
sg44
I01
sbag0
(g63
g2
Ntp351
Rp352
(dp353
g20
(lp354
g0
(g16
g2
Ntp355
Rp356
(dp357
g20
(lp358
g0
(g338
g2
Ntp359
Rp360
(dp361
g26
g0
(cchemdataextractor.parse.elements
Word
p362
g2
Ntp363
Rp364
(dp365
g39
V(
p366
sg41
Nsg42
(lp367
sg44
I01
sbsg41
Nsg42
(lp368
sg44
I01
sbag0
(g46
g2
Ntp369
Rp370
(dp371
g50
g51
(V^(I|II|III|IV|V|VI|VII|VIII|IX|XI|XII|XIII|XIV)$
p372
I2
tp373
Rp374
sg55
Nsg41
Nsg56
g372
sg42
(lp375
sg44
I01
sbag0
(g338
g2
Ntp376
Rp377
(dp378
g26
g0
(g362
g2
Ntp379
Rp380
(dp381
g39
V)
p382
sg41
Nsg42
(lp383
sg44
I01
sbsg41
Nsg42
(lp384
sg44
I01
sbag0
(g31
g2
Ntp385
Rp386
(dp387
g26
g0
(g46
g2
Ntp388
Rp389
(dp390
g50
g51
(V^[\u005c-\u2010\u2011\u2043\u2012\u2013\u2014\u2015\u2212\uff0d\u207b]$
p391
I0
tp392
Rp393
sg55
Nsg41
Nsg56
V^[\u005c-\u2010\u2011\u2043\u2012\u2013\u2014\u2015\u2212\uff0d\u207b]$
p394
sg42
(lp395
sg44
I01
sbsg41
Nsg42
(lp396
sg44
I01
sbasg41
Nsg42
(lp397
sg44
I01
sbag0
(g16
g2
Ntp398
Rp399
(dp400
g20
(lp401
g0
(g46
g2
Ntp402
Rp403
(dp404
g50
g51
(V^\u005cd{1,3}(\u005c.\u005cd{1,3}(\u005c.\u005cd{1,3}(\u005c.\u005cd{1,3})?)?)?$
p405
I0
tp406
Rp407
sg55
Nsg41
Nsg56
V^\u005cd{1,3}(\u005c.\u005cd{1,3}(\u005c.\u005cd{1,3}(\u005c.\u005cd{1,3})?)?)?$
p408
sg42
(lp409
sg44
I01
sbag0
(g31
g2
Ntp410
Rp411
(dp412
g26
g389
sg41
Nsg42
(lp413
sg44
I01
sbasg41
Nsg42
(lp414
sg44
I01
sbag0
(g16
g2
Ntp415
Rp416
(dp417
g20
(lp418
g0
(g63
g2
Ntp419
Rp420
(dp421
g20
(lp422
g0
(g76
g2
Ntp423
Rp424
(dp425
g39
Vstage
p426
sg41
Nsg42
(lp427
sg44
I01
sbag0
(g76
g2
Ntp428
Rp429
(dp430
g39
Vstep
p431
sg41
Nsg42
(lp432
sg44
I01
sbag0
(g76
g2
Ntp433
Rp434
(dp435
g39
Vsection
p436
sg41
Nsg42
(lp437
sg44
I01
sbag0
(g76
g2
Ntp438
Rp439
(dp440
g39
Vpart
p441
sg41
Nsg42
(lp442
sg44
I01
sbasg41
Nsg42
(lp443
sg44
I01
sbag0
(g63
g2
Ntp444
Rp445
(dp446
g20
(lp447
g0
(g46
g2
Ntp448
Rp449
(dp450
g50
g51
(V^(d-)?(\u005cd{1,2}[A-Za-z]{1,2}[\u2032\u2033\u2034\u2036\u2037\u2057]?)(-d)?$
p451
I0
tp452
Rp453
sg55
Nsg41
Nsg56
V^(d-)?(\u005cd{1,2}[A-Za-z]{1,2}[\u2032\u2033\u2034\u2036\u2037\u2057]?)(-d)?$
p454
sg42
(lp455
sg44
I01
sbag0
(g46
g2
Ntp456
Rp457
(dp458
g50
g51
(V^\u005cd{1,3}$
p459
I0
tp460
Rp461
sg55
Nsg41
Nsg56
V^\u005cd{1,3}$
p462
sg42
(lp463
sg44
I01
sbag370
ag0
(g46
g2
Ntp464
Rp465
(dp466
g50
g51
(V^[A-Z]$
p467
I0
tp468
Rp469
sg55
Nsg41
Nsg56
g467
sg42
(lp470
sg44
I01
sbasg41
Nsg42
(lp471
sg44
I01
sbasg41
Nsg42
(lp472
sg44
I01
sbasg41
Nsg42
(lp473
sg44
I01
sbasg41
Nsg42
(lp474
sg44
I01
sbsg41
Nsg42
(lp475
sg44
I01
sbag0
(g225
g2
Ntp476
Rp477
(dp478
g26
g0
(g16
g2
Ntp479
Rp480
(dp481
g20
(lp482
g0
(g31
g2
Ntp483
Rp484
(dp485
g26
g0
(g63
g2
Ntp486
Rp487
(dp488
g20
(lp489
g0
(g362
g2
Ntp490
Rp491
(dp492
g39
V\u2192
p493
sg41
Nsg42
(lp494
sg44
I01
sbag0
(g362
g2
Ntp495
Rp496
(dp497
g39
V+
p498
sg41
Nsg42
(lp499
sg44
I01
sbag0
(g362
g2
Ntp500
Rp501
(dp502
g39
Vin
p503
sg41
Nsg42
(lp504
sg44
I01
sbag0
(g16
g2
Ntp505
Rp506
(dp507
g20
(lp508
g0
(g362
g2
Ntp509
Rp510
(dp511
g39
V:
p512
sg41
Nsg42
(lp513
sg44
I01
sbag0
(g46
g2
Ntp514
Rp515
(dp516
g50
g51
(V^m\u005c.?p\u005c.?$
p517
I2
tp518
Rp519
sg55
Nsg41
Nsg56
V^m\u005c.?p\u005c.?$
p520
sg42
(lp521
sg44
I01
sbasg41
Nsg42
(lp522
sg44
I01
sbag0
(g16
g2
Ntp523
Rp524
(dp525
g20
(lp526
g0
(g362
g2
Ntp527
Rp528
(dp529
g39
g512
sg41
Nsg42
(lp530
sg44
I01
sbag0
(cchemdataextractor.parse.elements
Any
p531
g2
Ntp532
Rp533
(dp534
g41
Nsg42
(lp535
sg44
I01
sbag0
(g46
g2
Ntp536
Rp537
(dp538
g50
g51
(V^N\u005c.?M\u005c.?R\u005c.?\u005c(?$
p539
I2
tp540
Rp541
sg55
Nsg41
Nsg56
V^N\u005c.?M\u005c.?R\u005c.?\u005c(?$
p542
sg42
(lp543
sg44
I01
sbasg41
Nsg42
(lp544
sg44
I01
sbasg41
Nsg42
(lp545
sg44
I01
sbsg41
Nsg42
(lp546
sg44
I01
sbag0
(g35
g2
Ntp547
Rp548
(dp549
g39
VI-CM
p550
sg41
Nsg42
(lp551
sg44
I01
sbasg41
Nsg42
(lp552
sg44
I01
sbsg41
Nsg42
(lp553
sg44
I01
sbasg41
Nsg42
(lp554
sg44
I01
sbag0
(g16
g2
Ntp555
Rp556
(dp557
g20
(lp558
g0
(g35
g2
Ntp559
Rp560
(dp561
g42
(lp562
sg41
Nsg39
g40
sg44
I01
sbag0
(cchemdataextractor.parse.elements
ZeroOrMore
p563
g2
Ntp564
Rp565
(dp566
g26
g0
(g16
g2
Ntp567
Rp568
(dp569
g20
(lp570
g0
(g31
g2
Ntp571
Rp572
(dp573
g26
g487
sg41
Nsg42
(lp574
sg44
I01
sbag548
asg41
Nsg42
(lp575
sg44
I01
sbsg41
Nsg42
(lp576
sg44
I01
sbasg41
Nsg42
(lp577
sg44
I01
sbag0
(g46
g2
Ntp578
Rp579
(dp580
g50
g51
(V^(actinium|aluminium|aluminum|americium|antimony|argon|arsenic|astatine|barium|berkelium|beryllium|bismuth|bohrium|boron|bromine|cadmium|caesium|calcium|californium|carbon|cerium|cesium|chlorine|chromium|cobalt|copernicium|copper|curium|darmstadtium|dubnium|dysprosium|einsteinium|erbium|europium|fermium|flerovium|fluorine|francium|gadolinium|gallium|germanium|hafnium|hassium|helium|holmium|hydrargyrum|hydrogen|indium|iodine|iridium|iron|kalium|krypton|lanthanum|laIrencium|lithium|livermorium|lutetium|magnesium|manganese|meitnerium|mendelevium|mercury|molybdenum|natrium|neodymium|neon|neptunium|nickel|niobium|nitrogen|nobelium|osmium|oxygen|palladium|phosphorus|platinum|plumbum|plutonium|polonium|potassium|praseodymium|promethium|protactinium|radium|radon|rhenium|rhodium|roentgenium|rubidium|ruthenium|rutherfordium|samarium|scandium|seaborgium|selenium|silicon|silver|sodium|stannum|stibium|strontium|sulfur|tantalum|technetium|tellurium|terbium|thallium|thorium|thulium|tin|titanium|tungsten|ununoctium|ununpentium|ununseptium|ununtrium|uranium|vanadium|Iolfram|xenon|ytterbium|yttrium|zinc|zirconium)$
p581
I2
tp582
Rp583
sg55
Nsg41
Nsg56
g581
sg42
(lp584
sg44
I01
sbag0
(g46
g2
Ntp585
Rp586
(dp587
g50
g51
(V^(Ag|Au|Br|Cd|Cl|Cu|Fe|Gd|Ge|Hg|Mg|Pb|Pd|Pt|Ru|Sb|Si|Sn|Ti|Xe|Zn|Zr)$
p588
I0
tp589
Rp590
sg55
Nsg41
Nsg56
g588
sg42
(lp591
sg44
I01
sbag0
(g46
g2
Ntp592
Rp593
(dp594
g50
g51
(V^BRN-?\u005cd+$
p595
I0
tp596
Rp597
sg55
Nsg41
Nsg56
V^BRN-?\u005cd+$
p598
sg42
(lp599
sg44
I01
sbag0
(g46
g2
Ntp600
Rp601
(dp602
g50
g51
(V^CHEMBL-?\u005cd+$
p603
I0
tp604
Rp605
sg55
Nsg41
Nsg56
V^CHEMBL-?\u005cd+$
p606
sg42
(lp607
sg44
I01
sbag0
(g46
g2
Ntp608
Rp609
(dp610
g50
g51
(V^GSK-?\u005cd{3-7}$
p611
I0
tp612
Rp613
sg55
Nsg41
Nsg56
V^GSK-?\u005cd{3-7}$
p614
sg42
(lp615
sg44
I01
sbag0
(g46
g2
Ntp616
Rp617
(dp618
g50
g51
(V^\u005c[?(([1-9]\u005cd{2,7})|([5-9]\u005cd))-\u005cd\u005cd-\u005cd\u005c]?$
p619
I0
tp620
Rp621
sg55
Nsg41
Nsg56
V^\u005c[?(([1-9]\u005cd{2,7})|([5-9]\u005cd))-\u005cd\u005cd-\u005cd\u005c]?$
p622
sg42
(lp623
sg44
I01
sbag0
(g46
g2
Ntp624
Rp625
(dp626
g50
g51
(V^((Ala|Arg|Asn|Asp|Cys|Glu|Gln|Gly|Ile|Leu|Lys|Met|Phe|Pro|Ser|Thr|Trp|Tyr|Val)-?)+$
p627
I0
tp628
Rp629
sg55
Nsg41
Nsg56
g627
sg42
(lp630
sg44
I01
sbag0
(g46
g2
Ntp631
Rp632
(dp633
g50
g51
(V^(histidine|isoleucine|leucine|lysine|methionine|phenylalanine|threonine|tryptophan|valine|selenocysteine|serine|tyrosine|alanine|arginine|asparagine|cysteine|glutamine|glycine|proline)$
p634
I2
tp635
Rp636
sg55
Nsg41
Nsg56
g634
sg42
(lp637
sg44
I01
sbag0
(g16
g2
Ntp638
Rp639
(dp640
g20
(lp641
g0
(g76
g2
Ntp642
Rp643
(dp644
g42
(lp645
sg41
Nsg39
Vaspartic
p646
sg44
I01
sbag0
(g76
g2
Ntp647
Rp648
(dp649
g42
(lp650
sg41
Nsg39
Vacid
p651
sg44
I01
sbasg41
Nsg42
(lp652
sg44
I01
sbag0
(g16
g2
Ntp653
Rp654
(dp655
g20
(lp656
g0
(g76
g2
Ntp657
Rp658
(dp659
g42
(lp660
sg41
Nsg39
Vglutamic
p661
sg44
I01
sbag0
(g76
g2
Ntp662
Rp663
(dp664
g42
(lp665
sg41
Nsg39
g651
sg44
I01
sbasg41
Nsg42
(lp666
sg44
I01
sbag0
(g46
g2
Ntp667
Rp668
(dp669
g50
g51
(V^C\u005c(?\u005cd{1,3}\u005c)?(([HNOP]|Cl)\u005c(?\u005cd\u005cd?\u005c)?)+(\u005c(?\u005cd?[\u005c+\u005c-]\u005cd?\u005c)?)?$
p670
I0
tp671
Rp672
sg55
Nsg41
Nsg56
V^C\u005c(?\u005cd{1,3}\u005c)?(([HNOP]|Cl)\u005c(?\u005cd\u005cd?\u005c)?)+(\u005c(?\u005cd?[\u005c+\u005c-]\u005cd?\u005c)?)?$
p673
sg42
(lp674
sg44
I01
sbag0
(g46
g2
Ntp675
Rp676
(dp677
g50
g51
(V^(\u005c(?(A[glmru]|B[ahikr]|C[adeflmnorsu]|D[bsy]|E[rsu]|F[elmr]|G[ade]|H[efgos]|I[r][1-9]?|L[airuv]|M[dgnot]|N[abdeip]|Os|P[abdmotu]|R[abefghnu]|S[bcegimnr]|T[abehil]|U(u[opst])|Xe|Yb|Z[nr])\u005c)?([\u005cd.]+)?)+$
p678
I0
tp679
Rp680
sg55
Nsg41
Nsg56
V^(\u005c(?(A[glmru]|B[ahikr]|C[adeflmnorsu]|D[bsy]|E[rsu]|F[elmr]|G[ade]|H[efgos]|I[r][1-9]?|L[airuv]|M[dgnot]|N[abdeip]|Os|P[abdmotu]|R[abefghnu]|S[bcegimnr]|T[abehil]|U(u[opst])|Xe|Yb|Z[nr])\u005c)?([\u005cd.]+)?)+$
p681
sg42
(lp682
sg44
I01
sbag0
(g46
g2
Ntp683
Rp684
(dp685
g50
g51
(V^((\u005c(?\u005cd{2,3}\u005c)?)?(Fe|Ti|Mg|Ru|Cd|Se)\u005c(?(\u005cd\u005cd?|[IV]+)?\u005c)?((O|Hg)\u005c(?\u005cd?\u005cd?\u005c)?)?)+(\u005c(?\u005cd?[\u005c+\u005c-]\u005cd?\u005c)?)?$
p686
I0
tp687
Rp688
sg55
Nsg41
Nsg56
V^((\u005c(?\u005cd{2,3}\u005c)?)?(Fe|Ti|Mg|Ru|Cd|Se)\u005c(?(\u005cd\u005cd?|[IV]+)?\u005c)?((O|Hg)\u005c(?\u005cd?\u005cd?\u005c)?)?)+(\u005c(?\u005cd?[\u005c+\u005c-]\u005cd?\u005c)?)?$
p689
sg42
(lp690
sg44
I01
sbag0
(g46
g2
Ntp691
Rp692
(dp693
g50
g51
(V(NaOH|CaCl\u005cd?\u005cd?|EtOH|EtAc|MeOH|CF\u005cd|C\u005cd?\u005cd?H\u005cd\u005cd?)+$
p694
I0
tp695
Rp696
sg55
Nsg41
Nsg56
V(NaOH|CaCl\u005cd?\u005cd?|EtOH|EtAc|MeOH|CF\u005cd|C\u005cd?\u005cd?H\u005cd\u005cd?)+$
p697
sg42
(lp698
sg44
I01
sbag0
(g46
g2
Ntp699
Rp700
(dp701
g50
g51
(V(NO\u005cd|BH4|Ca\u005c(2\u005c+\u005c)|Ti\u005c(0\u005c)2|\u005c(CH3\u005c)2CHOH|\u005c(CH3\u005c)2CO|\u005c(CH3\u005c)2NCOH|C2H5CN|CH2ClCH2Cl|CH3C6H5|CH3CN|CH3CO2H|CH3COCH3|CH3COOH|CH3NHCOH|CH3Ph|CH3SOCH3|Cl2CH2|ClCH2CH2Cl)
p702
I0
tp703
Rp704
sg55
Nsg41
Nsg56
V(NO\u005cd|BH4|Ca\u005c(2\u005c+\u005c)|Ti\u005c(0\u005c)2|\u005c(CH3\u005c)2CHOH|\u005c(CH3\u005c)2CO|\u005c(CH3\u005c)2NCOH|C2H5CN|CH2ClCH2Cl|CH3C6H5|CH3CN|CH3CO2H|CH3COCH3|CH3COOH|CH3NHCOH|CH3Ph|CH3SOCH3|Cl2CH2|ClCH2CH2Cl)
p705
sg42
(lp706
sg44
I01
sbag0
(g46
g2
Ntp707
Rp708
(dp709
g50
g51
(V^(\u005c(CD3\u005c)2CO|\u005c(CDCl2\u005c)2|C6D6|C2D5CN|CD2Cl2|CD3CN|CD3COCD3|CD3OD|CD3SOCD3|CDCl3|CH3OD|D2O|EtOD|MeOD)$
p710
I0
tp711
Rp712
sg55
Nsg41
Nsg56
V^(\u005c(CD3\u005c)2CO|\u005c(CDCl2\u005c)2|C6D6|C2D5CN|CD2Cl2|CD3CN|CD3COCD3|CD3OD|CD3SOCD3|CDCl3|CH3OD|D2O|EtOD|MeOD)$
p713
sg42
(lp714
sg44
I01
sbag0
(g46
g2
Ntp715
Rp716
(dp717
g50
g51
(V^[\u005c[\u005c{\u005c(].*(NH\u005cd|H2O|NO\u005cd|C\u005cd?H\u005cd|C\u2013H|NBu4|CF3|CD3|CO2|[bp]i?py|\u005c(CO\u005c)|\u005cd,\u005cd['\u2032]?-|BF4|PF6|Cl\u005cd|Fe\u005cd|Ph\u005cd).*[\u005c]\u005c}\u005c)].*$
p718
I0
tp719
Rp720
sg55
Nsg41
Nsg56
V^[\u005c[\u005c{\u005c(].*(NH\u005cd|H2O|NO\u005cd|C\u005cd?H\u005cd|C\u2013H|NBu4|CF3|CD3|CO2|[bp]i?py|\u005c(CO\u005c)|\u005cd,\u005cd['\u2032]?-|BF4|PF6|Cl\u005cd|Fe\u005cd|Ph\u005cd).*[\u005c]\u005c}\u005c)].*$
p721
sg42
(lp722
sg44
I01
sbag0
(g46
g2
Ntp723
Rp724
(dp725
g50
g51
(V^[\u005c[\u005c{\u005c(]{1,2}(Ru|Ph|Py|Cu|Ir|Pt|Et\u005cd).*[\u005c]\u005c}\u005c)]$
p726
I0
tp727
Rp728
sg55
Nsg41
Nsg56
V^[\u005c[\u005c{\u005c(]{1,2}(Ru|Ph|Py|Cu|Ir|Pt|Et\u005cd).*[\u005c]\u005c}\u005c)]$
p729
sg42
(lp730
sg44
I01
sbag0
(g46
g2
Ntp731
Rp732
(dp733
g50
g51
(V^(GABA|NO|\u005c(\u005cd\u005c)H|KCl)$
p734
I0
tp735
Rp736
sg55
Nsg41
Nsg56
V^(GABA|NO|\u005c(\u005cd\u005c)H|KCl)$
p737
sg42
(lp738
sg44
I01
sbag0
(g362
g2
Ntp739
Rp740
(dp741
g42
(lp742
sg41
Nsg39
VLa1/3Ca2/3MnO3
p743
sg44
I01
sbag0
(g76
g2
Ntp744
Rp745
(dp746
g42
(lp747
sg41
Nsg39
V\u03b2-mns
p748
sg44
I01
sbag0
(g76
g2
Ntp749
Rp750
(dp751
g42
(lp752
sg41
Nsg39
V\u03b1-mns
p753
sg44
I01
sbag0
(g76
g2
Ntp754
Rp755
(dp756
g42
(lp757
sg41
Nsg39
Vbfsmo
p758
sg44
I01
sbag0
(g76
g2
Ntp759
Rp760
(dp761
g42
(lp762
sg41
Nsg39
Vbfo
p763
sg44
I01
sbag0
(g76
g2
Ntp764
Rp765
(dp766
g42
(lp767
sg41
Nsg39
Vbf
p768
sg44
I01
sbag0
(g76
g2
Ntp769
Rp770
(dp771
g42
(lp772
sg41
Nsg39
Vlco
p773
sg44
I01
sbag0
(g76
g2
Ntp774
Rp775
(dp776
g42
(lp777
sg41
Nsg39
Vblfmo
p778
sg44
I01
sbag0
(g76
g2
Ntp779
Rp780
(dp781
g42
(lp782
sg41
Nsg39
Vre\u2013bfo
p783
sg44
I01
sbag0
(g76
g2
Ntp784
Rp785
(dp786
g42
(lp787
sg41
Nsg39
Vlfp
p788
sg44
I01
sbag0
(g76
g2
Ntp789
Rp790
(dp791
g42
(lp792
sg41
Nsg39
Vlcp
p793
sg44
I01
sbag0
(g362
g2
Ntp794
Rp795
(dp796
g42
(lp797
sg41
Nsg39
VPb(Fe2/3W1/3)O3
p798
sg44
I01
sbag0
(g16
g2
Ntp799
Rp800
(dp801
g20
(lp802
g0
(g76
g2
Ntp803
Rp804
(dp805
g42
(lp806
sg41
Nsg39
Vbismuth
p807
sg44
I01
sbag0
(g63
g2
Ntp808
Rp809
(dp810
g20
(lp811
g0
(g76
g2
Ntp812
Rp813
(dp814
g42
(lp815
sg41
Nsg39
Vferrites
p816
sg44
I01
sbag0
(g76
g2
Ntp817
Rp818
(dp819
g42
(lp820
sg41
Nsg39
Vchromites
p821
sg44
I01
sbasg41
Nsg42
(lp822
sg44
I01
sbasg41
Nsg42
(lp823
sg44
I01
sbag0
(g362
g2
Ntp824
Rp825
(dp826
g42
(lp827
sg41
Nsg39
g798
sg44
I01
sbag0
(g76
g2
Ntp828
Rp829
(dp830
g42
(lp831
sg41
Nsg39
Vlsmo
p832
sg44
I01
sbag0
(g16
g2
Ntp833
Rp834
(dp835
g20
(lp836
g0
(g76
g2
Ntp837
Rp838
(dp839
g42
(lp840
sg41
Nsg39
Vmn
p841
sg44
I01
sbag0
(g46
g2
Ntp842
Rp843
(dp844
g50
g182
sg55
Nsg41
Nsg56
V\u005c-
p845
sg42
(lp846
sg44
I01
sbag0
(g76
g2
Ntp847
Rp848
(dp849
g42
(lp850
sg41
Nsg39
Vpp0
p851
sg44
I01
sbasg41
Nsg42
(lp852
sg44
I01
sbag0
(g46
g2
Ntp853
Rp854
(dp855
g50
g51
(V^(\u005c(?(A[glmru]|B[ahikr\u005c\u2032]|C[adeflmnorsu]|D[bsy]|E[rsu]|F[elmr]|G[ade]|H([fgos]|REE)|I[r]|L([ainruv]|REE)|M[dgnot]|N[abdeip]|O|P[abdmotu]|R([abefghnu]|E[EMOY]?)|S[bcegimnr]|T[abehil]|U(u[opst])|V|W|Xe|Yb?|Z[nr])\u005c)?(x|(1-x)|y|(1-y)|[\u005cd.]+)?)+$
p856
I0
tp857
Rp858
sg55
Nsg41
Nsg56
V^(\u005c(?(A[glmru]|B[ahikr\u005c\u2032]|C[adeflmnorsu]|D[bsy]|E[rsu]|F[elmr]|G[ade]|H([fgos]|REE)|I[r]|L([ainruv]|REE)|M[dgnot]|N[abdeip]|O|P[abdmotu]|R([abefghnu]|E[EMOY]?)|S[bcegimnr]|T[abehil]|U(u[opst])|V|W|Xe|Yb?|Z[nr])\u005c)?(x|(1-x)|y|(1-y)|[\u005cd.]+)?)+$
p859
sg42
(lp860
sg44
I01
sbag0
(g46
g2
Ntp861
Rp862
(dp863
g50
g51
(V^((A[glmru]|B[ahikr]|C[adeflmnorsu]|D[bsy]|E[rsu]|F[elmr]|G[ade]|H[efgos]|I[r]|L[airuv]|M[dgnot]|N[abdeip]|Os|P[abdmotu]|R[abefghnu]|S[bcegimnr]|T[abehil]|U(u[opst])?|Xe|Yb|Z[nr])(x|(1-x)|(2-x)|(3-x)|y|(1-y)|(2-y)|(3-y)[\u005cd.]+)?)+$
p864
I0
tp865
Rp866
sg55
Nsg41
Nsg56
V^((A[glmru]|B[ahikr]|C[adeflmnorsu]|D[bsy]|E[rsu]|F[elmr]|G[ade]|H[efgos]|I[r]|L[airuv]|M[dgnot]|N[abdeip]|Os|P[abdmotu]|R[abefghnu]|S[bcegimnr]|T[abehil]|U(u[opst])?|Xe|Yb|Z[nr])(x|(1-x)|(2-x)|(3-x)|y|(1-y)|(2-y)|(3-y)[\u005cd.]+)?)+$
p867
sg42
(lp868
sg44
I01
sbasg41
Nsg42
(lp869
sg44
I01
sbag0
(g22
g2
Ntp870
Rp871
(dp872
g26
g0
(g63
g2
Ntp873
Rp874
(dp875
g20
(lp876
g0
(g76
g2
Ntp877
Rp878
(dp879
g39
Vnanoparticles
p880
sg41
Nsg42
(lp881
sg44
I01
sbag0
(g76
g2
Ntp882
Rp883
(dp884
g39
Vnps
p885
sg41
Nsg42
(lp886
sg44
I01
sbag0
(g76
g2
Ntp887
Rp888
(dp889
g39
Vnanocrystals
p890
sg41
Nsg42
(lp891
sg44
I01
sbag0
(g76
g2
Ntp892
Rp893
(dp894
g39
Vnanotubes
p895
sg41
Nsg42
(lp896
sg44
I01
sbag0
(g76
g2
Ntp897
Rp898
(dp899
g39
Vnanowires
p900
sg41
Nsg42
(lp901
sg44
I01
sbag0
(g76
g2
Ntp902
Rp903
(dp904
g39
Vcores
p905
sg41
Nsg42
(lp906
sg44
I01
sbag0
(g76
g2
Ntp907
Rp908
(dp909
g39
Vcrystals
p910
sg41
Nsg42
(lp911
sg44
I01
sbag0
(g16
g2
Ntp912
Rp913
(dp914
g20
(lp915
g0
(g22
g2
Ntp916
Rp917
(dp918
g26
g0
(g76
g2
Ntp919
Rp920
(dp921
g39
Vthin
p922
sg41
Nsg42
(lp923
sg44
I01
sbsg41
Nsg42
(lp924
sg44
I01
sbag0
(g76
g2
Ntp925
Rp926
(dp927
g39
Vfilms
p928
sg41
Nsg42
(lp929
sg44
I01
sbasg41
Nsg42
(lp930
sg44
I01
sbag0
(g76
g2
Ntp931
Rp932
(dp933
g39
Vceramics
p934
sg41
Nsg42
(lp935
sg44
I01
sbasg41
Nsg42
(lp936
sg44
I01
sbsg41
Nsg42
(lp937
sg44
I01
sbag0
(g31
g2
Ntp938
Rp939
(dp940
g26
g0
(g76
g2
Ntp941
Rp942
(dp943
g39
Vconcentration
p944
sg41
Nsg42
(lp945
sg44
I01
sbsg41
Nsg42
(lp946
sg44
I01
sbasg41
Vname
p947
sg42
(lp948
cchemdataextractor.parse.actions
join
p949
acchemdataextractor.parse.actions
fix_whitespace
p950
asg44
I01
sbag0
(g63
g2
Ntp951
Rp952
(dp953
g20
(lp954
g0
(g16
g2
Ntp955
Rp956
(dp957
g20
(lp958
g0
(g76
g2
Ntp959
Rp960
(dp961
g42
(lp962
sg41
Nsg39
S'curie'
p963
sg44
I01
sbag0
(g76
g2
Ntp964
Rp965
(dp966
g42
(lp967
sg41
Nsg39
S'temperature'
p968
sg44
I01
sbag0
(g22
g2
Ntp969
Rp970
(dp971
g26
g0
(g63
g2
Ntp972
Rp973
(dp974
g20
(lp975
g0
(g35
g2
Ntp976
Rp977
(dp978
g39
V-LRB-
p979
sg41
Nsg42
(lp980
sg44
I01
sbag0
(g338
g2
Ntp981
Rp982
(dp983
g26
g0
(g46
g2
Ntp984
Rp985
(dp986
g50
g51
(V^[,:;\u005c.\u005c[\u005c]\u005c(\u005c)\u005c{\u005c}/]$
p987
I0
tp988
Rp989
sg55
Nsg41
Nsg56
V^[,:;\u005c.\u005c[\u005c]\u005c(\u005c)\u005c{\u005c}/]$
p990
sg42
(lp991
sg44
I01
sbsg41
Nsg42
(lp992
sg44
I01
sbasg41
Nsg42
(lp993
sg44
I01
sbsg41
Nsg42
(lp994
sg44
I01
sbag0
(g22
g2
Ntp995
Rp996
(dp997
g26
g0
(g46
g2
Ntp998
Rp999
(dp1000
g50
g51
(S'^T(C|c)(urie)?'
p1001
I0
tp1002
Rp1003
sg55
Nsg41
Nsg56
g1001
sg42
(lp1004
sg44
I01
sbsg41
Nsg42
(lp1005
sg44
I01
sbag0
(g22
g2
Ntp1006
Rp1007
(dp1008
g26
g0
(g35
g2
Ntp1009
Rp1010
(dp1011
g39
V-RRB-
p1012
sg41
Nsg42
(lp1013
sg44
I01
sbsg41
Nsg42
(lp1014
sg44
I01
sbasg41
Nsg42
(lp1015
sg44
I01
sbag0
(g46
g2
Ntp1016
Rp1017
(dp1018
g50
g1003
sg55
Nsg41
Nsg56
g1001
sg42
(lp1019
sg44
I01
sbasg41
S'specifier'
p1020
sg42
(lp1021
g949
asg44
I01
sbag0
(g46
g2
Ntp1022
Rp1023
(dp1024
g50
g51
(S'^\\d+(\\.\\,\\d+)?$'
p1025
I0
tp1026
Rp1027
sg55
Nsg41
S'value'
p1028
sg56
g1025
sg42
(lp1029
sg44
I01
sbag0
(g46
g2
Ntp1030
Rp1031
(dp1032
g50
g51
(S'^[CFK]\\.?$'
p1033
I0
tp1034
Rp1035
sg55
Nsg41
S'units'
p1036
sg56
g1033
sg42
(lp1037
cchemdataextractor.parse.actions
merge
p1038
asg44
I01
sbasS'parser'
p1039
g0
(g16
g2
Ntp1040
Rp1041
(dp1042
g20
(lp1043
g0
(g63
g2
Ntp1044
Rp1045
(dp1046
g20
(lp1047
g0
(g16
g2
Ntp1048
Rp1049
(dp1050
g20
(lp1051
g0
(g22
g2
Ntp1052
Rp1053
(dp1054
g26
g28
sg41
Nsg42
(lp1055
sg44
I01
sbag0
(g31
g2
Ntp1056
Rp1057
(dp1058
g26
g65
sg41
Nsg42
(lp1059
sg44
I01
sbag0
(g22
g2
Ntp1060
Rp1061
(dp1062
g26
g269
sg41
Nsg42
(lp1063
sg44
I01
sbag0
(g63
g2
Ntp1064
Rp1065
(dp1066
g20
(lp1067
g0
(g16
g2
Ntp1068
Rp1069
(dp1070
g20
(lp1071
g0
(g338
g2
Ntp1072
Rp1073
(dp1074
g26
g343
sg41
Nsg42
(lp1075
sg44
I01
sbag0
(g225
g2
Ntp1076
Rp1077
(dp1078
g26
g480
sg41
Nsg42
(lp1079
sg44
I01
sbasg41
Nsg42
(lp1080
sg44
I01
sbag0
(g16
g2
Ntp1081
Rp1082
(dp1083
g20
(lp1084
g0
(g35
g2
Ntp1085
Rp1086
(dp1087
g39
g40
sg41
Nsg42
(lp1088
sg44
I01
sbag0
(g563
g2
Ntp1089
Rp1090
(dp1091
g26
g568
sg41
Nsg42
(lp1092
sg44
I01
sbasg41
Nsg42
(lp1093
sg44
I01
sbag0
(g46
g2
Ntp1094
Rp1095
(dp1096
g50
g583
sg55
Nsg41
Nsg56
g581
sg42
(lp1097
sg44
I01
sbag0
(g46
g2
Ntp1098
Rp1099
(dp1100
g50
g590
sg55
Nsg41
Nsg56
g588
sg42
(lp1101
sg44
I01
sbag0
(g46
g2
Ntp1102
Rp1103
(dp1104
g50
g597
sg55
Nsg41
Nsg56
V^BRN-?\u005cd+$
p1105
sg42
(lp1106
sg44
I01
sbag0
(g46
g2
Ntp1107
Rp1108
(dp1109
g50
g605
sg55
Nsg41
Nsg56
V^CHEMBL-?\u005cd+$
p1110
sg42
(lp1111
sg44
I01
sbag0
(g46
g2
Ntp1112
Rp1113
(dp1114
g50
g613
sg55
Nsg41
Nsg56
V^GSK-?\u005cd{3-7}$
p1115
sg42
(lp1116
sg44
I01
sbag0
(g46
g2
Ntp1117
Rp1118
(dp1119
g50
g621
sg55
Nsg41
Nsg56
V^\u005c[?(([1-9]\u005cd{2,7})|([5-9]\u005cd))-\u005cd\u005cd-\u005cd\u005c]?$
p1120
sg42
(lp1121
sg44
I01
sbag0
(g46
g2
Ntp1122
Rp1123
(dp1124
g50
g629
sg55
Nsg41
Nsg56
g627
sg42
(lp1125
sg44
I01
sbag0
(g46
g2
Ntp1126
Rp1127
(dp1128
g50
g636
sg55
Nsg41
Nsg56
g634
sg42
(lp1129
sg44
I01
sbag0
(g16
g2
Ntp1130
Rp1131
(dp1132
g20
(lp1133
g0
(g76
g2
Ntp1134
Rp1135
(dp1136
g39
g646
sg41
Nsg42
(lp1137
sg44
I01
sbag0
(g76
g2
Ntp1138
Rp1139
(dp1140
g39
g651
sg41
Nsg42
(lp1141
sg44
I01
sbasg41
Nsg42
(lp1142
sg44
I01
sbag0
(g16
g2
Ntp1143
Rp1144
(dp1145
g20
(lp1146
g0
(g76
g2
Ntp1147
Rp1148
(dp1149
g39
g661
sg41
Nsg42
(lp1150
sg44
I01
sbag0
(g76
g2
Ntp1151
Rp1152
(dp1153
g39
g651
sg41
Nsg42
(lp1154
sg44
I01
sbasg41
Nsg42
(lp1155
sg44
I01
sbag0
(g46
g2
Ntp1156
Rp1157
(dp1158
g50
g672
sg55
Nsg41
Nsg56
V^C\u005c(?\u005cd{1,3}\u005c)?(([HNOP]|Cl)\u005c(?\u005cd\u005cd?\u005c)?)+(\u005c(?\u005cd?[\u005c+\u005c-]\u005cd?\u005c)?)?$
p1159
sg42
(lp1160
sg44
I01
sbag0
(g46
g2
Ntp1161
Rp1162
(dp1163
g50
g680
sg55
Nsg41
Nsg56
V^(\u005c(?(A[glmru]|B[ahikr]|C[adeflmnorsu]|D[bsy]|E[rsu]|F[elmr]|G[ade]|H[efgos]|I[r][1-9]?|L[airuv]|M[dgnot]|N[abdeip]|Os|P[abdmotu]|R[abefghnu]|S[bcegimnr]|T[abehil]|U(u[opst])|Xe|Yb|Z[nr])\u005c)?([\u005cd.]+)?)+$
p1164
sg42
(lp1165
sg44
I01
sbag0
(g46
g2
Ntp1166
Rp1167
(dp1168
g50
g688
sg55
Nsg41
Nsg56
V^((\u005c(?\u005cd{2,3}\u005c)?)?(Fe|Ti|Mg|Ru|Cd|Se)\u005c(?(\u005cd\u005cd?|[IV]+)?\u005c)?((O|Hg)\u005c(?\u005cd?\u005cd?\u005c)?)?)+(\u005c(?\u005cd?[\u005c+\u005c-]\u005cd?\u005c)?)?$
p1169
sg42
(lp1170
sg44
I01
sbag0
(g46
g2
Ntp1171
Rp1172
(dp1173
g50
g696
sg55
Nsg41
Nsg56
V(NaOH|CaCl\u005cd?\u005cd?|EtOH|EtAc|MeOH|CF\u005cd|C\u005cd?\u005cd?H\u005cd\u005cd?)+$
p1174
sg42
(lp1175
sg44
I01
sbag0
(g46
g2
Ntp1176
Rp1177
(dp1178
g50
g704
sg55
Nsg41
Nsg56
V(NO\u005cd|BH4|Ca\u005c(2\u005c+\u005c)|Ti\u005c(0\u005c)2|\u005c(CH3\u005c)2CHOH|\u005c(CH3\u005c)2CO|\u005c(CH3\u005c)2NCOH|C2H5CN|CH2ClCH2Cl|CH3C6H5|CH3CN|CH3CO2H|CH3COCH3|CH3COOH|CH3NHCOH|CH3Ph|CH3SOCH3|Cl2CH2|ClCH2CH2Cl)
p1179
sg42
(lp1180
sg44
I01
sbag0
(g46
g2
Ntp1181
Rp1182
(dp1183
g50
g712
sg55
Nsg41
Nsg56
V^(\u005c(CD3\u005c)2CO|\u005c(CDCl2\u005c)2|C6D6|C2D5CN|CD2Cl2|CD3CN|CD3COCD3|CD3OD|CD3SOCD3|CDCl3|CH3OD|D2O|EtOD|MeOD)$
p1184
sg42
(lp1185
sg44
I01
sbag0
(g46
g2
Ntp1186
Rp1187
(dp1188
g50
g720
sg55
Nsg41
Nsg56
V^[\u005c[\u005c{\u005c(].*(NH\u005cd|H2O|NO\u005cd|C\u005cd?H\u005cd|C\u2013H|NBu4|CF3|CD3|CO2|[bp]i?py|\u005c(CO\u005c)|\u005cd,\u005cd['\u2032]?-|BF4|PF6|Cl\u005cd|Fe\u005cd|Ph\u005cd).*[\u005c]\u005c}\u005c)].*$
p1189
sg42
(lp1190
sg44
I01
sbag0
(g46
g2
Ntp1191
Rp1192
(dp1193
g50
g728
sg55
Nsg41
Nsg56
V^[\u005c[\u005c{\u005c(]{1,2}(Ru|Ph|Py|Cu|Ir|Pt|Et\u005cd).*[\u005c]\u005c}\u005c)]$
p1194
sg42
(lp1195
sg44
I01
sbag0
(g46
g2
Ntp1196
Rp1197
(dp1198
g50
g736
sg55
Nsg41
Nsg56
V^(GABA|NO|\u005c(\u005cd\u005c)H|KCl)$
p1199
sg42
(lp1200
sg44
I01
sbag0
(g362
g2
Ntp1201
Rp1202
(dp1203
g39
g743
sg41
Nsg42
(lp1204
sg44
I01
sbag0
(g76
g2
Ntp1205
Rp1206
(dp1207
g39
g748
sg41
Nsg42
(lp1208
sg44
I01
sbag0
(g76
g2
Ntp1209
Rp1210
(dp1211
g39
g753
sg41
Nsg42
(lp1212
sg44
I01
sbag0
(g76
g2
Ntp1213
Rp1214
(dp1215
g39
g758
sg41
Nsg42
(lp1216
sg44
I01
sbag0
(g76
g2
Ntp1217
Rp1218
(dp1219
g39
g763
sg41
Nsg42
(lp1220
sg44
I01
sbag0
(g76
g2
Ntp1221
Rp1222
(dp1223
g39
g768
sg41
Nsg42
(lp1224
sg44
I01
sbag0
(g76
g2
Ntp1225
Rp1226
(dp1227
g39
g773
sg41
Nsg42
(lp1228
sg44
I01
sbag0
(g76
g2
Ntp1229
Rp1230
(dp1231
g39
g778
sg41
Nsg42
(lp1232
sg44
I01
sbag0
(g76
g2
Ntp1233
Rp1234
(dp1235
g39
g783
sg41
Nsg42
(lp1236
sg44
I01
sbag0
(g76
g2
Ntp1237
Rp1238
(dp1239
g39
g788
sg41
Nsg42
(lp1240
sg44
I01
sbag0
(g76
g2
Ntp1241
Rp1242
(dp1243
g39
g793
sg41
Nsg42
(lp1244
sg44
I01
sbag0
(g362
g2
Ntp1245
Rp1246
(dp1247
g39
g798
sg41
Nsg42
(lp1248
sg44
I01
sbag0
(g16
g2
Ntp1249
Rp1250
(dp1251
g20
(lp1252
g0
(g76
g2
Ntp1253
Rp1254
(dp1255
g39
g807
sg41
Nsg42
(lp1256
sg44
I01
sbag0
(g63
g2
Ntp1257
Rp1258
(dp1259
g20
(lp1260
g0
(g76
g2
Ntp1261
Rp1262
(dp1263
g39
g816
sg41
Nsg42
(lp1264
sg44
I01
sbag0
(g76
g2
Ntp1265
Rp1266
(dp1267
g39
g821
sg41
Nsg42
(lp1268
sg44
I01
sbasg41
Nsg42
(lp1269
sg44
I01
sbasg41
Nsg42
(lp1270
sg44
I01
sbag0
(g362
g2
Ntp1271
Rp1272
(dp1273
g39
g798
sg41
Nsg42
(lp1274
sg44
I01
sbag0
(g76
g2
Ntp1275
Rp1276
(dp1277
g39
g832
sg41
Nsg42
(lp1278
sg44
I01
sbag0
(g16
g2
Ntp1279
Rp1280
(dp1281
g20
(lp1282
g0
(g76
g2
Ntp1283
Rp1284
(dp1285
g39
g841
sg41
Nsg42
(lp1286
sg44
I01
sbag0
(g46
g2
Ntp1287
Rp1288
(dp1289
g50
g182
sg55
Nsg41
Nsg56
V\u005c-
p1290
sg42
(lp1291
sg44
I01
sbag0
(g76
g2
Ntp1292
Rp1293
(dp1294
g39
g851
sg41
Nsg42
(lp1295
sg44
I01
sbasg41
Nsg42
(lp1296
sg44
I01
sbag0
(g46
g2
Ntp1297
Rp1298
(dp1299
g50
g858
sg55
Nsg41
Nsg56
V^(\u005c(?(A[glmru]|B[ahikr\u005c\u2032]|C[adeflmnorsu]|D[bsy]|E[rsu]|F[elmr]|G[ade]|H([fgos]|REE)|I[r]|L([ainruv]|REE)|M[dgnot]|N[abdeip]|O|P[abdmotu]|R([abefghnu]|E[EMOY]?)|S[bcegimnr]|T[abehil]|U(u[opst])|V|W|Xe|Yb?|Z[nr])\u005c)?(x|(1-x)|y|(1-y)|[\u005cd.]+)?)+$
p1300
sg42
(lp1301
sg44
I01
sbag0
(g46
g2
Ntp1302
Rp1303
(dp1304
g50
g866
sg55
Nsg41
Nsg56
V^((A[glmru]|B[ahikr]|C[adeflmnorsu]|D[bsy]|E[rsu]|F[elmr]|G[ade]|H[efgos]|I[r]|L[airuv]|M[dgnot]|N[abdeip]|Os|P[abdmotu]|R[abefghnu]|S[bcegimnr]|T[abehil]|U(u[opst])?|Xe|Yb|Z[nr])(x|(1-x)|(2-x)|(3-x)|y|(1-y)|(2-y)|(3-y)[\u005cd.]+)?)+$
p1305
sg42
(lp1306
sg44
I01
sbasg41
Nsg42
(lp1307
sg44
I01
sbag0
(g22
g2
Ntp1308
Rp1309
(dp1310
g26
g874
sg41
Nsg42
(lp1311
sg44
I01
sbag0
(g31
g2
Ntp1312
Rp1313
(dp1314
g26
g942
sg41
Nsg42
(lp1315
sg44
I01
sbasg41
g947
sg42
(lp1316
g949
ag950
asg44
I01
sbag0
(g63
g2
Ntp1317
Rp1318
(dp1319
g20
(lp1320
g0
(g16
g2
Ntp1321
Rp1322
(dp1323
g20
(lp1324
g0
(g76
g2
Ntp1325
Rp1326
(dp1327
g39
g963
sg41
Nsg42
(lp1328
sg44
I01
sbag0
(g76
g2
Ntp1329
Rp1330
(dp1331
g39
g968
sg41
Nsg42
(lp1332
sg44
I01
sbag0
(g22
g2
Ntp1333
Rp1334
(dp1335
g26
g973
sg41
Nsg42
(lp1336
sg44
I01
sbag0
(g22
g2
Ntp1337
Rp1338
(dp1339
g26
g999
sg41
Nsg42
(lp1340
sg44
I01
sbag0
(g22
g2
Ntp1341
Rp1342
(dp1343
g26
g1010
sg41
Nsg42
(lp1344
sg44
I01
sbasg41
Nsg42
(lp1345
sg44
I01
sbag0
(g46
g2
Ntp1346
Rp1347
(dp1348
g50
g1003
sg55
Nsg41
Nsg56
g1001
sg42
(lp1349
sg44
I01
sbasg41
g1020
sg42
(lp1350
g949
asg44
I01
sbag0
(g16
g2
Ntp1351
Rp1352
(dp1353
g20
(lp1354
g0
(g46
g2
Ntp1355
Rp1356
(dp1357
g50
g1027
sg55
Nsg41
g1028
sg56
g1025
sg42
(lp1358
sg44
I01
sbag0
(g46
g2
Ntp1359
Rp1360
(dp1361
g50
g1035
sg55
Nsg41
g1036
sg56
g1033
sg42
(lp1362
g1038
asg44
I01
sbasg41
Nsg42
(lp1363
sg44
I01
sbasg41
Nsg42
(lp1364
sg44
I01
sbag0
(g225
g2
Ntp1365
Rp1366
(dp1367
g26
g0
(g63
g2
Ntp1368
Rp1369
(dp1370
g20
(lp1371
g18
ag952
ag0
(g16
g2
Ntp1372
Rp1373
(dp1374
g20
(lp1375
g1023
ag1031
asg41
Nsg42
(lp1376
sg44
I01
sbag0
(g531
g2
Ntp1377
Rp1378
(dp1379
g41
Nsg42
(lp1380
sg44
I01
sbasg41
Nsg42
(lp1381
sg44
I01
sbsg41
Nsg42
(lp1382
sg44
I01
sbasg41
S'curie_temperature'
p1383
sg42
(lp1384
sg44
I01
sbsg41
g8
sS'rule'
p1385
(dp1386
S'all'
p1387
NssbsS'minimum_cluster_similarity_score'
p1388
F0.95
sS'phrases'
p1389
(lp1390
sS'learning_rate'
p1391
F0.5
sS'save_dir'
p1392
S'chemdataextractor/relex/data/'
p1393
sS'cluster_counter'
p1394
I8
sS'prefix_weight'
p1395
F0.1
sS'relations'
p1396
(lp1397
sS'minimum_relation_confidence'
p1398
F0.95
sS'prefix_length'
p1399
I1
sS'sentences'
p1400
(lp1401
sS'clusters'
p1402
(lp1403
(ichemdataextractor.relex.cluster
Cluster
p1404
(dp1405
S'old_pattern_confidence'
p1406
F1.0
sg1389
(lp1407
g0
(cchemdataextractor.relex.phrase
Phrase
p1408
g2
Ntp1409
Rp1410
(dp1411
S'elements'
p1412
(dp1413
S'prefix'
p1414
(dp1415
S'tokens'
p1416
(lp1417
S'<Blank>'
p1418
assS'suffix'
p1419
(dp1420
g1416
(lp1421
V(
p1422
assS'middle_2'
p1423
(dp1424
g1416
(lp1425
Vof
p1426
assS'middle_3'
p1427
(dp1428
g1416
(lp1429
g1418
assS'middle_1'
p1430
(dp1431
g1416
(lp1432
Vis
p1433
aVa
p1434
aVferromagnetic
p1435
aVtransition
p1436
aVmetal
p1437
aVexhibiting
p1438
ag1434
aVhigh
p1439
asssS'full_sentence'
p1440
VCobalt is a ferromagnetic transition metal exhibiting a high Curie temperature of 1388 K ( ferromagnetic \u2013 paramagnetic transition ) and a high saturation magnetization ( 1422 emu cm\u22123 ) at room temperature .
p1441
sg1396
(lp1442
g0
(cchemdataextractor.relex.relationship
Relation
p1443
g2
Ntp1444
Rp1445
(dp1446
g14
(g0
(cchemdataextractor.relex.entity
Entity
p1447
g2
Ntp1448
Rp1449
(dp1450
S'text'
p1451
VCobalt
p1452
sS'tag'
p1453
g0
(g16
g2
Ntp1454
Rp1455
(dp1456
g20
g21
sg41
Vname_1
p1457
sg42
g948
sg44
I01
sbsS'end'
p1458
I1
sS'start'
p1459
I0
sbg0
(g1447
g2
Ntp1460
Rp1461
(dp1462
g1451
VCurie temperature
p1463
sg1453
g0
(g63
g2
Ntp1464
Rp1465
(dp1466
g20
g954
sg41
S'specifier_1'
p1467
sg42
g1021
sg44
I01
sbsg1458
I11
sg1459
I9
sbg0
(g1447
g2
Ntp1468
Rp1469
(dp1470
g1451
V1388
p1471
sg1453
g0
(g46
g2
Ntp1472
Rp1473
(dp1474
g50
g1027
sg55
Nsg41
S'value_1'
p1475
sg56
g1025
sg42
g1029
sg44
I01
sbsg1458
I13
sg1459
I12
sbg0
(g1447
g2
Ntp1476
Rp1477
(dp1478
g1451
VK
p1479
sg1453
g0
(g46
g2
Ntp1480
Rp1481
(dp1482
g50
g1035
sg55
Nsg41
S'units_1'
p1483
sg56
g1033
sg42
g1037
sg44
I01
sbsg1458
I14
sg1459
I13
sbtp1484
sS'confidence'
p1485
F1.0
sbasS'sentence_tokens'
p1486
(lp1487
VCobalt
p1488
ag1433
ag1434
ag1435
ag1436
ag1437
ag1438
ag1434
ag1439
aVCurie
p1489
aVtemperature
p1490
ag1426
aV1388
p1491
ag1479
ag1422
aVferromagnetic
p1492
aV\u2013
p1493
aVparamagnetic
p1494
aVtransition
p1495
aV)
p1496
aVand
p1497
ag1434
aVhigh
p1498
aVsaturation
p1499
aVmagnetization
p1500
ag1422
aV1422
p1501
aVemu
p1502
aVcm\u22123
p1503
ag1496
aVat
p1504
aVroom
p1505
aVtemperature
p1506
aV.
p1507
asg14
(lp1508
g1449
ag1461
ag1469
ag1477
asg1399
I1
sS'number_of_entities'
p1509
I4
sS'order'
p1510
(lp1511
Vname
p1512
aS'specifier'
p1513
aS'value'
p1514
aS'units'
p1515
asS'cluster_assignments'
p1516
c__builtin__
set
p1517
((lp1518
tp1519
Rp1520
sS'suffix_length'
p1521
I1
sbasg1391
F0.5
sS'dictionaries'
p1522
(dp1523
g1414
(dp1524
S'total recurring words'
p1525
I0
sS'unique words'
p1526
(lp1527
sS'total words'
p1528
I1
sS'token dict'
p1529
ccollections
OrderedDict
p1530
((lp1531
(lp1532
g1418
a(lp1533
F1.0
aF1.0
aaatp1534
Rp1535
ssg1430
(dp1536
g1525
I0
sg1526
(lp1537
sg1528
I8
sg1529
g1530
((lp1538
(lp1539
g1433
a(lp1540
F1.0
aF0.125
aaa(lp1541
g1434
a(lp1542
F2.0
aF0.25
aaa(lp1543
g1435
a(lp1544
F1.0
aF0.125
aaa(lp1545
g1436
a(lp1546
F1.0
aF0.125
aaa(lp1547
g1437
a(lp1548
F1.0
aF0.125
aaa(lp1549
g1438
a(lp1550
F1.0
aF0.125
aaa(lp1551
g1439
a(lp1552
F1.0
aF0.125
aaatp1553
Rp1554
ssg1423
(dp1555
g1525
I0
sg1526
(lp1556
sg1528
I1
sg1529
g1530
((lp1557
(lp1558
g1426
a(lp1559
F1.0
aF1.0
aaatp1560
Rp1561
ssg1419
(dp1562
g1525
I0
sg1526
(lp1563
sg1528
I1
sg1529
g1530
((lp1564
(lp1565
g1422
a(lp1566
F1.0
aF1.0
aaatp1567
Rp1568
ssg1427
(dp1569
g1525
I0
sg1526
(lp1570
sg1528
I1
sg1529
g1530
((lp1571
(lp1572
g1418
a(lp1573
F1.0
aF1.0
aaatp1574
Rp1575
sssS'label'
p1576
S'0'
p1577
sg14
g1508
sg56
(ichemdataextractor.relex.pattern
Pattern
p1578
(dp1579
g1485
F1.0
sg1412
(dp1580
g1427
g1428
sg1414
g1415
sg1423
g1424
sg1419
g1420
sg1430
g1431
ssg1396
g1442
sg14
g1508
sS'phrase_element'
p1581
g0
(g16
g2
Ntp1582
Rp1583
(dp1584
g20
(lp1585
g0
(g16
g2
Ntp1586
Rp1587
(dp1588
g20
(lp1589
g0
(g22
g2
Ntp1590
Rp1591
(dp1592
g26
g28
sg41
Nsg42
(lp1593
sg44
I01
sbag0
(g31
g2
Ntp1594
Rp1595
(dp1596
g26
g65
sg41
Nsg42
(lp1597
sg44
I01
sbag0
(g22
g2
Ntp1598
Rp1599
(dp1600
g26
g269
sg41
Nsg42
(lp1601
sg44
I01
sbag0
(g63
g2
Ntp1602
Rp1603
(dp1604
g20
(lp1605
g0
(g16
g2
Ntp1606
Rp1607
(dp1608
g20
(lp1609
g0
(g338
g2
Ntp1610
Rp1611
(dp1612
g26
g343
sg41
Nsg42
(lp1613
sg44
I01
sbag0
(g225
g2
Ntp1614
Rp1615
(dp1616
g26
g480
sg41
Nsg42
(lp1617
sg44
I01
sbasg41
Nsg42
(lp1618
sg44
I01
sbag0
(g16
g2
Ntp1619
Rp1620
(dp1621
g20
(lp1622
g0
(g35
g2
Ntp1623
Rp1624
(dp1625
g39
g40
sg41
Nsg42
(lp1626
sg44
I01
sbag0
(g563
g2
Ntp1627
Rp1628
(dp1629
g26
g568
sg41
Nsg42
(lp1630
sg44
I01
sbasg41
Nsg42
(lp1631
sg44
I01
sbag0
(g46
g2
Ntp1632
Rp1633
(dp1634
g50
g583
sg55
Nsg41
Nsg56
g581
sg42
(lp1635
sg44
I01
sbag0
(g46
g2
Ntp1636
Rp1637
(dp1638
g50
g590
sg55
Nsg41
Nsg56
g588
sg42
(lp1639
sg44
I01
sbag0
(g46
g2
Ntp1640
Rp1641
(dp1642
g50
g597
sg55
Nsg41
Nsg56
V^BRN-?\u005cd+$
p1643
sg42
(lp1644
sg44
I01
sbag0
(g46
g2
Ntp1645
Rp1646
(dp1647
g50
g605
sg55
Nsg41
Nsg56
V^CHEMBL-?\u005cd+$
p1648
sg42
(lp1649
sg44
I01
sbag0
(g46
g2
Ntp1650
Rp1651
(dp1652
g50
g613
sg55
Nsg41
Nsg56
V^GSK-?\u005cd{3-7}$
p1653
sg42
(lp1654
sg44
I01
sbag0
(g46
g2
Ntp1655
Rp1656
(dp1657
g50
g621
sg55
Nsg41
Nsg56
V^\u005c[?(([1-9]\u005cd{2,7})|([5-9]\u005cd))-\u005cd\u005cd-\u005cd\u005c]?$
p1658
sg42
(lp1659
sg44
I01
sbag0
(g46
g2
Ntp1660
Rp1661
(dp1662
g50
g629
sg55
Nsg41
Nsg56
g627
sg42
(lp1663
sg44
I01
sbag0
(g46
g2
Ntp1664
Rp1665
(dp1666
g50
g636
sg55
Nsg41
Nsg56
g634
sg42
(lp1667
sg44
I01
sbag0
(g16
g2
Ntp1668
Rp1669
(dp1670
g20
(lp1671
g0
(g76
g2
Ntp1672
Rp1673
(dp1674
g39
g646
sg41
Nsg42
(lp1675
sg44
I01
sbag0
(g76
g2
Ntp1676
Rp1677
(dp1678
g39
g651
sg41
Nsg42
(lp1679
sg44
I01
sbasg41
Nsg42
(lp1680
sg44
I01
sbag0
(g16
g2
Ntp1681
Rp1682
(dp1683
g20
(lp1684
g0
(g76
g2
Ntp1685
Rp1686
(dp1687
g39
g661
sg41
Nsg42
(lp1688
sg44
I01
sbag0
(g76
g2
Ntp1689
Rp1690
(dp1691
g39
g651
sg41
Nsg42
(lp1692
sg44
I01
sbasg41
Nsg42
(lp1693
sg44
I01
sbag0
(g46
g2
Ntp1694
Rp1695
(dp1696
g50
g672
sg55
Nsg41
Nsg56
V^C\u005c(?\u005cd{1,3}\u005c)?(([HNOP]|Cl)\u005c(?\u005cd\u005cd?\u005c)?)+(\u005c(?\u005cd?[\u005c+\u005c-]\u005cd?\u005c)?)?$
p1697
sg42
(lp1698
sg44
I01
sbag0
(g46
g2
Ntp1699
Rp1700
(dp1701
g50
g680
sg55
Nsg41
Nsg56
V^(\u005c(?(A[glmru]|B[ahikr]|C[adeflmnorsu]|D[bsy]|E[rsu]|F[elmr]|G[ade]|H[efgos]|I[r][1-9]?|L[airuv]|M[dgnot]|N[abdeip]|Os|P[abdmotu]|R[abefghnu]|S[bcegimnr]|T[abehil]|U(u[opst])|Xe|Yb|Z[nr])\u005c)?([\u005cd.]+)?)+$
p1702
sg42
(lp1703
sg44
I01
sbag0
(g46
g2
Ntp1704
Rp1705
(dp1706
g50
g688
sg55
Nsg41
Nsg56
V^((\u005c(?\u005cd{2,3}\u005c)?)?(Fe|Ti|Mg|Ru|Cd|Se)\u005c(?(\u005cd\u005cd?|[IV]+)?\u005c)?((O|Hg)\u005c(?\u005cd?\u005cd?\u005c)?)?)+(\u005c(?\u005cd?[\u005c+\u005c-]\u005cd?\u005c)?)?$
p1707
sg42
(lp1708
sg44
I01
sbag0
(g46
g2
Ntp1709
Rp1710
(dp1711
g50
g696
sg55
Nsg41
Nsg56
V(NaOH|CaCl\u005cd?\u005cd?|EtOH|EtAc|MeOH|CF\u005cd|C\u005cd?\u005cd?H\u005cd\u005cd?)+$
p1712
sg42
(lp1713
sg44
I01
sbag0
(g46
g2
Ntp1714
Rp1715
(dp1716
g50
g704
sg55
Nsg41
Nsg56
V(NO\u005cd|BH4|Ca\u005c(2\u005c+\u005c)|Ti\u005c(0\u005c)2|\u005c(CH3\u005c)2CHOH|\u005c(CH3\u005c)2CO|\u005c(CH3\u005c)2NCOH|C2H5CN|CH2ClCH2Cl|CH3C6H5|CH3CN|CH3CO2H|CH3COCH3|CH3COOH|CH3NHCOH|CH3Ph|CH3SOCH3|Cl2CH2|ClCH2CH2Cl)
p1717
sg42
(lp1718
sg44
I01
sbag0
(g46
g2
Ntp1719
Rp1720
(dp1721
g50
g712
sg55
Nsg41
Nsg56
V^(\u005c(CD3\u005c)2CO|\u005c(CDCl2\u005c)2|C6D6|C2D5CN|CD2Cl2|CD3CN|CD3COCD3|CD3OD|CD3SOCD3|CDCl3|CH3OD|D2O|EtOD|MeOD)$
p1722
sg42
(lp1723
sg44
I01
sbag0
(g46
g2
Ntp1724
Rp1725
(dp1726
g50
g720
sg55
Nsg41
Nsg56
V^[\u005c[\u005c{\u005c(].*(NH\u005cd|H2O|NO\u005cd|C\u005cd?H\u005cd|C\u2013H|NBu4|CF3|CD3|CO2|[bp]i?py|\u005c(CO\u005c)|\u005cd,\u005cd['\u2032]?-|BF4|PF6|Cl\u005cd|Fe\u005cd|Ph\u005cd).*[\u005c]\u005c}\u005c)].*$
p1727
sg42
(lp1728
sg44
I01
sbag0
(g46
g2
Ntp1729
Rp1730
(dp1731
g50
g728
sg55
Nsg41
Nsg56
V^[\u005c[\u005c{\u005c(]{1,2}(Ru|Ph|Py|Cu|Ir|Pt|Et\u005cd).*[\u005c]\u005c}\u005c)]$
p1732
sg42
(lp1733
sg44
I01
sbag0
(g46
g2
Ntp1734
Rp1735
(dp1736
g50
g736
sg55
Nsg41
Nsg56
V^(GABA|NO|\u005c(\u005cd\u005c)H|KCl)$
p1737
sg42
(lp1738
sg44
I01
sbag0
(g362
g2
Ntp1739
Rp1740
(dp1741
g39
g743
sg41
Nsg42
(lp1742
sg44
I01
sbag0
(g76
g2
Ntp1743
Rp1744
(dp1745
g39
g748
sg41
Nsg42
(lp1746
sg44
I01
sbag0
(g76
g2
Ntp1747
Rp1748
(dp1749
g39
g753
sg41
Nsg42
(lp1750
sg44
I01
sbag0
(g76
g2
Ntp1751
Rp1752
(dp1753
g39
g758
sg41
Nsg42
(lp1754
sg44
I01
sbag0
(g76
g2
Ntp1755
Rp1756
(dp1757
g39
g763
sg41
Nsg42
(lp1758
sg44
I01
sbag0
(g76
g2
Ntp1759
Rp1760
(dp1761
g39
g768
sg41
Nsg42
(lp1762
sg44
I01
sbag0
(g76
g2
Ntp1763
Rp1764
(dp1765
g39
g773
sg41
Nsg42
(lp1766
sg44
I01
sbag0
(g76
g2
Ntp1767
Rp1768
(dp1769
g39
g778
sg41
Nsg42
(lp1770
sg44
I01
sbag0
(g76
g2
Ntp1771
Rp1772
(dp1773
g39
g783
sg41
Nsg42
(lp1774
sg44
I01
sbag0
(g76
g2
Ntp1775
Rp1776
(dp1777
g39
g788
sg41
Nsg42
(lp1778
sg44
I01
sbag0
(g76
g2
Ntp1779
Rp1780
(dp1781
g39
g793
sg41
Nsg42
(lp1782
sg44
I01
sbag0
(g362
g2
Ntp1783
Rp1784
(dp1785
g39
g798
sg41
Nsg42
(lp1786
sg44
I01
sbag0
(g16
g2
Ntp1787
Rp1788
(dp1789
g20
(lp1790
g0
(g76
g2
Ntp1791
Rp1792
(dp1793
g39
g807
sg41
Nsg42
(lp1794
sg44
I01
sbag0
(g63
g2
Ntp1795
Rp1796
(dp1797
g20
(lp1798
g0
(g76
g2
Ntp1799
Rp1800
(dp1801
g39
g816
sg41
Nsg42
(lp1802
sg44
I01
sbag0
(g76
g2
Ntp1803
Rp1804
(dp1805
g39
g821
sg41
Nsg42
(lp1806
sg44
I01
sbasg41
Nsg42
(lp1807
sg44
I01
sbasg41
Nsg42
(lp1808
sg44
I01
sbag0
(g362
g2
Ntp1809
Rp1810
(dp1811
g39
g798
sg41
Nsg42
(lp1812
sg44
I01
sbag0
(g76
g2
Ntp1813
Rp1814
(dp1815
g39
g832
sg41
Nsg42
(lp1816
sg44
I01
sbag0
(g16
g2
Ntp1817
Rp1818
(dp1819
g20
(lp1820
g0
(g76
g2
Ntp1821
Rp1822
(dp1823
g39
g841
sg41
Nsg42
(lp1824
sg44
I01
sbag0
(g46
g2
Ntp1825
Rp1826
(dp1827
g50
g182
sg55
Nsg41
Nsg56
V\u005c-
p1828
sg42
(lp1829
sg44
I01
sbag0
(g76
g2
Ntp1830
Rp1831
(dp1832
g39
g851
sg41
Nsg42
(lp1833
sg44
I01
sbasg41
Nsg42
(lp1834
sg44
I01
sbag0
(g46
g2
Ntp1835
Rp1836
(dp1837
g50
g858
sg55
Nsg41
Nsg56
V^(\u005c(?(A[glmru]|B[ahikr\u005c\u2032]|C[adeflmnorsu]|D[bsy]|E[rsu]|F[elmr]|G[ade]|H([fgos]|REE)|I[r]|L([ainruv]|REE)|M[dgnot]|N[abdeip]|O|P[abdmotu]|R([abefghnu]|E[EMOY]?)|S[bcegimnr]|T[abehil]|U(u[opst])|V|W|Xe|Yb?|Z[nr])\u005c)?(x|(1-x)|y|(1-y)|[\u005cd.]+)?)+$
p1838
sg42
(lp1839
sg44
I01
sbag0
(g46
g2
Ntp1840
Rp1841
(dp1842
g50
g866
sg55
Nsg41
Nsg56
V^((A[glmru]|B[ahikr]|C[adeflmnorsu]|D[bsy]|E[rsu]|F[elmr]|G[ade]|H[efgos]|I[r]|L[airuv]|M[dgnot]|N[abdeip]|Os|P[abdmotu]|R[abefghnu]|S[bcegimnr]|T[abehil]|U(u[opst])?|Xe|Yb|Z[nr])(x|(1-x)|(2-x)|(3-x)|y|(1-y)|(2-y)|(3-y)[\u005cd.]+)?)+$
p1843
sg42
(lp1844
sg44
I01
sbasg41
Nsg42
(lp1845
sg44
I01
sbag0
(g22
g2
Ntp1846
Rp1847
(dp1848
g26
g874
sg41
Nsg42
(lp1849
sg44
I01
sbag0
(g31
g2
Ntp1850
Rp1851
(dp1852
g26
g942
sg41
Nsg42
(lp1853
sg44
I01
sbasg41
g1457
sg42
(lp1854
g949
ag950
asg44
I01
sbag0
(g76
g2
Ntp1855
Rp1856
(dp1857
g42
(lp1858
sg41
Nsg39
g1433
sg44
I01
sbag0
(g76
g2
Ntp1859
Rp1860
(dp1861
g42
(lp1862
sg41
Nsg39
g1434
sg44
I01
sbag0
(g76
g2
Ntp1863
Rp1864
(dp1865
g42
(lp1866
sg41
Nsg39
g1435
sg44
I01
sbag0
(g76
g2
Ntp1867
Rp1868
(dp1869
g42
(lp1870
sg41
Nsg39
g1436
sg44
I01
sbag0
(g76
g2
Ntp1871
Rp1872
(dp1873
g42
(lp1874
sg41
Nsg39
g1437
sg44
I01
sbag0
(g76
g2
Ntp1875
Rp1876
(dp1877
g42
(lp1878
sg41
Nsg39
g1438
sg44
I01
sbag0
(g76
g2
Ntp1879
Rp1880
(dp1881
g42
(lp1882
sg41
Nsg39
g1434
sg44
I01
sbag0
(g76
g2
Ntp1883
Rp1884
(dp1885
g42
(lp1886
sg41
Nsg39
g1439
sg44
I01
sbag0
(g63
g2
Ntp1887
Rp1888
(dp1889
g20
(lp1890
g0
(g16
g2
Ntp1891
Rp1892
(dp1893
g20
(lp1894
g0
(g76
g2
Ntp1895
Rp1896
(dp1897
g39
g963
sg41
Nsg42
(lp1898
sg44
I01
sbag0
(g76
g2
Ntp1899
Rp1900
(dp1901
g39
g968
sg41
Nsg42
(lp1902
sg44
I01
sbag0
(g22
g2
Ntp1903
Rp1904
(dp1905
g26
g973
sg41
Nsg42
(lp1906
sg44
I01
sbag0
(g22
g2
Ntp1907
Rp1908
(dp1909
g26
g999
sg41
Nsg42
(lp1910
sg44
I01
sbag0
(g22
g2
Ntp1911
Rp1912
(dp1913
g26
g1010
sg41
Nsg42
(lp1914
sg44
I01
sbasg41
Nsg42
(lp1915
sg44
I01
sbag0
(g46
g2
Ntp1916
Rp1917
(dp1918
g50
g1003
sg55
Nsg41
Nsg56
g1001
sg42
(lp1919
sg44
I01
sbasg41
g1467
sg42
(lp1920
g949
asg44
I01
sbag0
(g76
g2
Ntp1921
Rp1922
(dp1923
g42
(lp1924
sg41
Nsg39
g1426
sg44
I01
sbag0
(g46
g2
Ntp1925
Rp1926
(dp1927
g50
g1027
sg55
Nsg41
g1475
sg56
g1025
sg42
(lp1928
sg44
I01
sbag0
(g46
g2
Ntp1929
Rp1930
(dp1931
g50
g1035
sg55
Nsg41
g1483
sg56
g1033
sg42
(lp1932
g1038
asg44
I01
sbag0
(g76
g2
Ntp1933
Rp1934
(dp1935
g42
(lp1936
sg41
Nsg39
g1422
sg44
I01
sbasg41
S'phrase'
p1937
sg42
(lp1938
sg44
I01
sbsg1509
I4
sS'cluster_label'
p1939
g1577
sg1510
g1511
sbsg1510
g1511
sba(ichemdataextractor.relex.cluster
Cluster
p1940
(dp1941
g1406
F1.0
sg1389
(lp1942
g0
(g1408
g2
Ntp1943
Rp1944
(dp1945
g1412
(dp1946
g1414
(dp1947
g1416
(lp1948
Vthe
p1949
assg1419
(dp1950
g1416
(lp1951
g1422
assS'middle_2'
p1952
(dp1953
g1416
(lp1954
Vat
p1955
aVaround
p1956
assS'middle_3'
p1957
(dp1958
g1416
(lp1959
g1418
assS'middle_1'
p1960
(dp1961
g1416
(lp1962
Vshow
p1963
ag1434
aVtransition
p1964
aVtemperature
p1965
asssg1440
VThe DC susceptibility curves of the EuS nanocrystals show a transition temperature TC at around 15 K ( estimated from the inflection point of the curves ) and a thermal irreversibility below Tir = 14 K .
p1966
sg1396
(lp1967
g0
(g1443
g2
Ntp1968
Rp1969
(dp1970
g14
(g0
(g1447
g2
Ntp1971
Rp1972
(dp1973
g1451
VEuS nanocrystals
p1974
sg1453
g0
(g16
g2
Ntp1975
Rp1976
(dp1977
g20
g21
sg41
Vname_1
p1978
sg42
g948
sg44
I01
sbsg1458
I8
sg1459
I6
sbg0
(g1447
g2
Ntp1979
Rp1980
(dp1981
g1451
VTC
p1982
sg1453
g0
(g63
g2
Ntp1983
Rp1984
(dp1985
g20
g954
sg41
S'specifier_1'
p1986
sg42
g1021
sg44
I01
sbsg1458
I13
sg1459
I12
sbg0
(g1447
g2
Ntp1987
Rp1988
(dp1989
g1451
V15
p1990
sg1453
g0
(g46
g2
Ntp1991
Rp1992
(dp1993
g50
g1027
sg55
Nsg41
S'value_1'
p1994
sg56
g1025
sg42
g1029
sg44
I01
sbsg1458
I16
sg1459
I15
sbg0
(g1447
g2
Ntp1995
Rp1996
(dp1997
g1451
g1479
sg1453
g0
(g46
g2
Ntp1998
Rp1999
(dp2000
g50
g1035
sg55
Nsg41
S'units_1'
p2001
sg56
g1033
sg42
g1037
sg44
I01
sbsg1458
I17
sg1459
I16
sbtp2002
sg1485
F1.0
sbasg1486
(lp2003
VThe
p2004
aVDC
p2005
aVsusceptibility
p2006
aVcurves
p2007
aVof
p2008
ag1949
aVEuS
p2009
aVnanocrystals
p2010
ag1963
ag1434
ag1964
ag1965
aVTC
p2011
ag1955
ag1956
aV15
p2012
ag1479
ag1422
aVestimated
p2013
aVfrom
p2014
aVthe
p2015
aVinflection
p2016
aVpoint
p2017
aVof
p2018
aVthe
p2019
aVcurves
p2020
ag1496
aVand
p2021
ag1434
aVthermal
p2022
aVirreversibility
p2023
aVbelow
p2024
aVTir
p2025
aV=
p2026
aV14
p2027
ag1479
ag1507
asg14
(lp2028
g1972
ag1980
ag1988
ag1996
asg1399
I1
sg1509
I4
sg1510
(lp2029
Vname
p2030
aS'specifier'
p2031
aS'value'
p2032
aS'units'
p2033
asg1516
g1517
((lp2034
tp2035
Rp2036
sg1521
I1
sbasg1391
F0.5
sg1522
(dp2037
g1414
(dp2038
g1525
I0
sg1526
(lp2039
sg1528
I1
sg1529
g1530
((lp2040
(lp2041
g1949
a(lp2042
F1.0
aF1.0
aaatp2043
Rp2044
ssg1960
(dp2045
g1525
I0
sg1526
(lp2046
sg1528
I4
sg1529
g1530
((lp2047
(lp2048
g1963
a(lp2049
F1.0
aF0.25
aaa(lp2050
g1434
a(lp2051
F1.0
aF0.25
aaa(lp2052
g1964
a(lp2053
F1.0
aF0.25
aaa(lp2054
g1965
a(lp2055
F1.0
aF0.25
aaatp2056
Rp2057
ssg1952
(dp2058
g1525
I0
sg1526
(lp2059
sg1528
I2
sg1529
g1530
((lp2060
(lp2061
g1955
a(lp2062
F1.0
aF0.5
aaa(lp2063
g1956
a(lp2064
F1.0
aF0.5
aaatp2065
Rp2066
ssg1419
(dp2067
g1525
I0
sg1526
(lp2068
sg1528
I1
sg1529
g1530
((lp2069
(lp2070
g1422
a(lp2071
F1.0
aF1.0
aaatp2072
Rp2073
ssg1957
(dp2074
g1525
I0
sg1526
(lp2075
sg1528
I1
sg1529
g1530
((lp2076
(lp2077
g1418
a(lp2078
F1.0
aF1.0
aaatp2079
Rp2080
sssg1576
S'1'
p2081
sg14
g2028
sg56
(ichemdataextractor.relex.pattern
Pattern
p2082
(dp2083
g1485
F1.0
sg1412
(dp2084
g1957
g1958
sg1414
g1947
sg1952
g1953
sg1419
g1950
sg1960
g1961
ssg1396
g1967
sg14
g2028
sg1581
g0
(g16
g2
Ntp2085
Rp2086
(dp2087
g20
(lp2088
g0
(g76
g2
Ntp2089
Rp2090
(dp2091
g42
(lp2092
sg41
Nsg39
g1949
sg44
I01
sbag0
(g16
g2
Ntp2093
Rp2094
(dp2095
g20
(lp2096
g0
(g22
g2
Ntp2097
Rp2098
(dp2099
g26
g28
sg41
Nsg42
(lp2100
sg44
I01
sbag0
(g31
g2
Ntp2101
Rp2102
(dp2103
g26
g65
sg41
Nsg42
(lp2104
sg44
I01
sbag0
(g22
g2
Ntp2105
Rp2106
(dp2107
g26
g269
sg41
Nsg42
(lp2108
sg44
I01
sbag0
(g63
g2
Ntp2109
Rp2110
(dp2111
g20
(lp2112
g0
(g16
g2
Ntp2113
Rp2114
(dp2115
g20
(lp2116
g0
(g338
g2
Ntp2117
Rp2118
(dp2119
g26
g343
sg41
Nsg42
(lp2120
sg44
I01
sbag0
(g225
g2
Ntp2121
Rp2122
(dp2123
g26
g480
sg41
Nsg42
(lp2124
sg44
I01
sbasg41
Nsg42
(lp2125
sg44
I01
sbag0
(g16
g2
Ntp2126
Rp2127
(dp2128
g20
(lp2129
g0
(g35
g2
Ntp2130
Rp2131
(dp2132
g39
g40
sg41
Nsg42
(lp2133
sg44
I01
sbag0
(g563
g2
Ntp2134
Rp2135
(dp2136
g26
g568
sg41
Nsg42
(lp2137
sg44
I01
sbasg41
Nsg42
(lp2138
sg44
I01
sbag0
(g46
g2
Ntp2139
Rp2140
(dp2141
g50
g583
sg55
Nsg41
Nsg56
g581
sg42
(lp2142
sg44
I01
sbag0
(g46
g2
Ntp2143
Rp2144
(dp2145
g50
g590
sg55
Nsg41
Nsg56
g588
sg42
(lp2146
sg44
I01
sbag0
(g46
g2
Ntp2147
Rp2148
(dp2149
g50
g597
sg55
Nsg41
Nsg56
V^BRN-?\u005cd+$
p2150
sg42
(lp2151
sg44
I01
sbag0
(g46
g2
Ntp2152
Rp2153
(dp2154
g50
g605
sg55
Nsg41
Nsg56
V^CHEMBL-?\u005cd+$
p2155
sg42
(lp2156
sg44
I01
sbag0
(g46
g2
Ntp2157
Rp2158
(dp2159
g50
g613
sg55
Nsg41
Nsg56
V^GSK-?\u005cd{3-7}$
p2160
sg42
(lp2161
sg44
I01
sbag0
(g46
g2
Ntp2162
Rp2163
(dp2164
g50
g621
sg55
Nsg41
Nsg56
V^\u005c[?(([1-9]\u005cd{2,7})|([5-9]\u005cd))-\u005cd\u005cd-\u005cd\u005c]?$
p2165
sg42
(lp2166
sg44
I01
sbag0
(g46
g2
Ntp2167
Rp2168
(dp2169
g50
g629
sg55
Nsg41
Nsg56
g627
sg42
(lp2170
sg44
I01
sbag0
(g46
g2
Ntp2171
Rp2172
(dp2173
g50
g636
sg55
Nsg41
Nsg56
g634
sg42
(lp2174
sg44
I01
sbag0
(g16
g2
Ntp2175
Rp2176
(dp2177
g20
(lp2178
g0
(g76
g2
Ntp2179
Rp2180
(dp2181
g39
g646
sg41
Nsg42
(lp2182
sg44
I01
sbag0
(g76
g2
Ntp2183
Rp2184
(dp2185
g39
g651
sg41
Nsg42
(lp2186
sg44
I01
sbasg41
Nsg42
(lp2187
sg44
I01
sbag0
(g16
g2
Ntp2188
Rp2189
(dp2190
g20
(lp2191
g0
(g76
g2
Ntp2192
Rp2193
(dp2194
g39
g661
sg41
Nsg42
(lp2195
sg44
I01
sbag0
(g76
g2
Ntp2196
Rp2197
(dp2198
g39
g651
sg41
Nsg42
(lp2199
sg44
I01
sbasg41
Nsg42
(lp2200
sg44
I01
sbag0
(g46
g2
Ntp2201
Rp2202
(dp2203
g50
g672
sg55
Nsg41
Nsg56
V^C\u005c(?\u005cd{1,3}\u005c)?(([HNOP]|Cl)\u005c(?\u005cd\u005cd?\u005c)?)+(\u005c(?\u005cd?[\u005c+\u005c-]\u005cd?\u005c)?)?$
p2204
sg42
(lp2205
sg44
I01
sbag0
(g46
g2
Ntp2206
Rp2207
(dp2208
g50
g680
sg55
Nsg41
Nsg56
V^(\u005c(?(A[glmru]|B[ahikr]|C[adeflmnorsu]|D[bsy]|E[rsu]|F[elmr]|G[ade]|H[efgos]|I[r][1-9]?|L[airuv]|M[dgnot]|N[abdeip]|Os|P[abdmotu]|R[abefghnu]|S[bcegimnr]|T[abehil]|U(u[opst])|Xe|Yb|Z[nr])\u005c)?([\u005cd.]+)?)+$
p2209
sg42
(lp2210
sg44
I01
sbag0
(g46
g2
Ntp2211
Rp2212
(dp2213
g50
g688
sg55
Nsg41
Nsg56
V^((\u005c(?\u005cd{2,3}\u005c)?)?(Fe|Ti|Mg|Ru|Cd|Se)\u005c(?(\u005cd\u005cd?|[IV]+)?\u005c)?((O|Hg)\u005c(?\u005cd?\u005cd?\u005c)?)?)+(\u005c(?\u005cd?[\u005c+\u005c-]\u005cd?\u005c)?)?$
p2214
sg42
(lp2215
sg44
I01
sbag0
(g46
g2
Ntp2216
Rp2217
(dp2218
g50
g696
sg55
Nsg41
Nsg56
V(NaOH|CaCl\u005cd?\u005cd?|EtOH|EtAc|MeOH|CF\u005cd|C\u005cd?\u005cd?H\u005cd\u005cd?)+$
p2219
sg42
(lp2220
sg44
I01
sbag0
(g46
g2
Ntp2221
Rp2222
(dp2223
g50
g704
sg55
Nsg41
Nsg56
V(NO\u005cd|BH4|Ca\u005c(2\u005c+\u005c)|Ti\u005c(0\u005c)2|\u005c(CH3\u005c)2CHOH|\u005c(CH3\u005c)2CO|\u005c(CH3\u005c)2NCOH|C2H5CN|CH2ClCH2Cl|CH3C6H5|CH3CN|CH3CO2H|CH3COCH3|CH3COOH|CH3NHCOH|CH3Ph|CH3SOCH3|Cl2CH2|ClCH2CH2Cl)
p2224
sg42
(lp2225
sg44
I01
sbag0
(g46
g2
Ntp2226
Rp2227
(dp2228
g50
g712
sg55
Nsg41
Nsg56
V^(\u005c(CD3\u005c)2CO|\u005c(CDCl2\u005c)2|C6D6|C2D5CN|CD2Cl2|CD3CN|CD3COCD3|CD3OD|CD3SOCD3|CDCl3|CH3OD|D2O|EtOD|MeOD)$
p2229
sg42
(lp2230
sg44
I01
sbag0
(g46
g2
Ntp2231
Rp2232
(dp2233
g50
g720
sg55
Nsg41
Nsg56
V^[\u005c[\u005c{\u005c(].*(NH\u005cd|H2O|NO\u005cd|C\u005cd?H\u005cd|C\u2013H|NBu4|CF3|CD3|CO2|[bp]i?py|\u005c(CO\u005c)|\u005cd,\u005cd['\u2032]?-|BF4|PF6|Cl\u005cd|Fe\u005cd|Ph\u005cd).*[\u005c]\u005c}\u005c)].*$
p2234
sg42
(lp2235
sg44
I01
sbag0
(g46
g2
Ntp2236
Rp2237
(dp2238
g50
g728
sg55
Nsg41
Nsg56
V^[\u005c[\u005c{\u005c(]{1,2}(Ru|Ph|Py|Cu|Ir|Pt|Et\u005cd).*[\u005c]\u005c}\u005c)]$
p2239
sg42
(lp2240
sg44
I01
sbag0
(g46
g2
Ntp2241
Rp2242
(dp2243
g50
g736
sg55
Nsg41
Nsg56
V^(GABA|NO|\u005c(\u005cd\u005c)H|KCl)$
p2244
sg42
(lp2245
sg44
I01
sbag0
(g362
g2
Ntp2246
Rp2247
(dp2248
g39
g743
sg41
Nsg42
(lp2249
sg44
I01
sbag0
(g76
g2
Ntp2250
Rp2251
(dp2252
g39
g748
sg41
Nsg42
(lp2253
sg44
I01
sbag0
(g76
g2
Ntp2254
Rp2255
(dp2256
g39
g753
sg41
Nsg42
(lp2257
sg44
I01
sbag0
(g76
g2
Ntp2258
Rp2259
(dp2260
g39
g758
sg41
Nsg42
(lp2261
sg44
I01
sbag0
(g76
g2
Ntp2262
Rp2263
(dp2264
g39
g763
sg41
Nsg42
(lp2265
sg44
I01
sbag0
(g76
g2
Ntp2266
Rp2267
(dp2268
g39
g768
sg41
Nsg42
(lp2269
sg44
I01
sbag0
(g76
g2
Ntp2270
Rp2271
(dp2272
g39
g773
sg41
Nsg42
(lp2273
sg44
I01
sbag0
(g76
g2
Ntp2274
Rp2275
(dp2276
g39
g778
sg41
Nsg42
(lp2277
sg44
I01
sbag0
(g76
g2
Ntp2278
Rp2279
(dp2280
g39
g783
sg41
Nsg42
(lp2281
sg44
I01
sbag0
(g76
g2
Ntp2282
Rp2283
(dp2284
g39
g788
sg41
Nsg42
(lp2285
sg44
I01
sbag0
(g76
g2
Ntp2286
Rp2287
(dp2288
g39
g793
sg41
Nsg42
(lp2289
sg44
I01
sbag0
(g362
g2
Ntp2290
Rp2291
(dp2292
g39
g798
sg41
Nsg42
(lp2293
sg44
I01
sbag0
(g16
g2
Ntp2294
Rp2295
(dp2296
g20
(lp2297
g0
(g76
g2
Ntp2298
Rp2299
(dp2300
g39
g807
sg41
Nsg42
(lp2301
sg44
I01
sbag0
(g63
g2
Ntp2302
Rp2303
(dp2304
g20
(lp2305
g0
(g76
g2
Ntp2306
Rp2307
(dp2308
g39
g816
sg41
Nsg42
(lp2309
sg44
I01
sbag0
(g76
g2
Ntp2310
Rp2311
(dp2312
g39
g821
sg41
Nsg42
(lp2313
sg44
I01
sbasg41
Nsg42
(lp2314
sg44
I01
sbasg41
Nsg42
(lp2315
sg44
I01
sbag0
(g362
g2
Ntp2316
Rp2317
(dp2318
g39
g798
sg41
Nsg42
(lp2319
sg44
I01
sbag0
(g76
g2
Ntp2320
Rp2321
(dp2322
g39
g832
sg41
Nsg42
(lp2323
sg44
I01
sbag0
(g16
g2
Ntp2324
Rp2325
(dp2326
g20
(lp2327
g0
(g76
g2
Ntp2328
Rp2329
(dp2330
g39
g841
sg41
Nsg42
(lp2331
sg44
I01
sbag0
(g46
g2
Ntp2332
Rp2333
(dp2334
g50
g182
sg55
Nsg41
Nsg56
V\u005c-
p2335
sg42
(lp2336
sg44
I01
sbag0
(g76
g2
Ntp2337
Rp2338
(dp2339
g39
g851
sg41
Nsg42
(lp2340
sg44
I01
sbasg41
Nsg42
(lp2341
sg44
I01
sbag0
(g46
g2
Ntp2342
Rp2343
(dp2344
g50
g858
sg55
Nsg41
Nsg56
V^(\u005c(?(A[glmru]|B[ahikr\u005c\u2032]|C[adeflmnorsu]|D[bsy]|E[rsu]|F[elmr]|G[ade]|H([fgos]|REE)|I[r]|L([ainruv]|REE)|M[dgnot]|N[abdeip]|O|P[abdmotu]|R([abefghnu]|E[EMOY]?)|S[bcegimnr]|T[abehil]|U(u[opst])|V|W|Xe|Yb?|Z[nr])\u005c)?(x|(1-x)|y|(1-y)|[\u005cd.]+)?)+$
p2345
sg42
(lp2346
sg44
I01
sbag0
(g46
g2
Ntp2347
Rp2348
(dp2349
g50
g866
sg55
Nsg41
Nsg56
V^((A[glmru]|B[ahikr]|C[adeflmnorsu]|D[bsy]|E[rsu]|F[elmr]|G[ade]|H[efgos]|I[r]|L[airuv]|M[dgnot]|N[abdeip]|Os|P[abdmotu]|R[abefghnu]|S[bcegimnr]|T[abehil]|U(u[opst])?|Xe|Yb|Z[nr])(x|(1-x)|(2-x)|(3-x)|y|(1-y)|(2-y)|(3-y)[\u005cd.]+)?)+$
p2350
sg42
(lp2351
sg44
I01
sbasg41
Nsg42
(lp2352
sg44
I01
sbag0
(g22
g2
Ntp2353
Rp2354
(dp2355
g26
g874
sg41
Nsg42
(lp2356
sg44
I01
sbag0
(g31
g2
Ntp2357
Rp2358
(dp2359
g26
g942
sg41
Nsg42
(lp2360
sg44
I01
sbasg41
g1978
sg42
(lp2361
g949
ag950
asg44
I01
sbag0
(g76
g2
Ntp2362
Rp2363
(dp2364
g42
(lp2365
sg41
Nsg39
g1963
sg44
I01
sbag0
(g76
g2
Ntp2366
Rp2367
(dp2368
g42
(lp2369
sg41
Nsg39
g1434
sg44
I01
sbag0
(g76
g2
Ntp2370
Rp2371
(dp2372
g42
(lp2373
sg41
Nsg39
g1964
sg44
I01
sbag0
(g76
g2
Ntp2374
Rp2375
(dp2376
g42
(lp2377
sg41
Nsg39
g1965
sg44
I01
sbag0
(g63
g2
Ntp2378
Rp2379
(dp2380
g20
(lp2381
g0
(g16
g2
Ntp2382
Rp2383
(dp2384
g20
(lp2385
g0
(g76
g2
Ntp2386
Rp2387
(dp2388
g39
g963
sg41
Nsg42
(lp2389
sg44
I01
sbag0
(g76
g2
Ntp2390
Rp2391
(dp2392
g39
g968
sg41
Nsg42
(lp2393
sg44
I01
sbag0
(g22
g2
Ntp2394
Rp2395
(dp2396
g26
g973
sg41
Nsg42
(lp2397
sg44
I01
sbag0
(g22
g2
Ntp2398
Rp2399
(dp2400
g26
g999
sg41
Nsg42
(lp2401
sg44
I01
sbag0
(g22
g2
Ntp2402
Rp2403
(dp2404
g26
g1010
sg41
Nsg42
(lp2405
sg44
I01
sbasg41
Nsg42
(lp2406
sg44
I01
sbag0
(g46
g2
Ntp2407
Rp2408
(dp2409
g50
g1003
sg55
Nsg41
Nsg56
g1001
sg42
(lp2410
sg44
I01
sbasg41
g1986
sg42
(lp2411
g949
asg44
I01
sbag0
(g76
g2
Ntp2412
Rp2413
(dp2414
g42
(lp2415
sg41
Nsg39
g1955
sg44
I01
sbag0
(g76
g2
Ntp2416
Rp2417
(dp2418
g42
(lp2419
sg41
Nsg39
g1956
sg44
I01
sbag0
(g46
g2
Ntp2420
Rp2421
(dp2422
g50
g1027
sg55
Nsg41
g1994
sg56
g1025
sg42
(lp2423
sg44
I01
sbag0
(g46
g2
Ntp2424
Rp2425
(dp2426
g50
g1035
sg55
Nsg41
g2001
sg56
g1033
sg42
(lp2427
g1038
asg44
I01
sbag0
(g76
g2
Ntp2428
Rp2429
(dp2430
g42
(lp2431
sg41
Nsg39
g1422
sg44
I01
sbasg41
g1937
sg42
(lp2432
sg44
I01
sbsg1509
I4
sg1939
g2081
sg1510
g2029
sbsg1510
g2029
sba(ichemdataextractor.relex.cluster
Cluster
p2433
(dp2434
g1406
F1.0
sg1389
(lp2435
g0
(g1408
g2
Ntp2436
Rp2437
(dp2438
g1412
(dp2439
g1414
(dp2440
g1416
(lp2441
Vsince
p2442
assg1419
(dp2443
g1416
(lp2444
g1507
assS'middle_2'
p2445
(dp2446
g1416
(lp2447
Vat
p2448
assS'middle_3'
p2449
(dp2450
g1416
(lp2451
g1418
assS'middle_1'
p2452
(dp2453
g1416
(lp2454
Vhas
p2455
ag1434
asssg1440
VIn what concerns the other range ( > 40 K ) , we observe a maximum at 60 K ( Fig. 6b ) , probably related to a EuO - like environment located at the surface of the nanocrystals , since EuO has a Tc at 69 K .
p2456
sg1396
(lp2457
g0
(g1443
g2
Ntp2458
Rp2459
(dp2460
g14
(g0
(g1447
g2
Ntp2461
Rp2462
(dp2463
g1451
VEuO
p2464
sg1453
g0
(g16
g2
Ntp2465
Rp2466
(dp2467
g20
g21
sg41
Vname_1
p2468
sg42
g948
sg44
I01
sbsg1458
I42
sg1459
I41
sbg0
(g1447
g2
Ntp2469
Rp2470
(dp2471
g1451
VTc
p2472
sg1453
g0
(g63
g2
Ntp2473
Rp2474
(dp2475
g20
g954
sg41
S'specifier_1'
p2476
sg42
g1021
sg44
I01
sbsg1458
I45
sg1459
I44
sbg0
(g1447
g2
Ntp2477
Rp2478
(dp2479
g1451
V69
p2480
sg1453
g0
(g46
g2
Ntp2481
Rp2482
(dp2483
g50
g1027
sg55
Nsg41
S'value_1'
p2484
sg56
g1025
sg42
g1029
sg44
I01
sbsg1458
I47
sg1459
I46
sbg0
(g1447
g2
Ntp2485
Rp2486
(dp2487
g1451
g1479
sg1453
g0
(g46
g2
Ntp2488
Rp2489
(dp2490
g50
g1035
sg55
Nsg41
S'units_1'
p2491
sg56
g1033
sg42
g1037
sg44
I01
sbsg1458
I48
sg1459
I47
sbtp2492
sg1485
F1.0
sbasg1486
(lp2493
VIn
p2494
aVwhat
p2495
aVconcerns
p2496
aVthe
p2497
aVother
p2498
aVrange
p2499
ag1422
aV>
p2500
aV40
p2501
ag1479
ag1496
aV,
p2502
aVwe
p2503
aVobserve
p2504
ag1434
aVmaximum
p2505
aVat
p2506
aV60
p2507
ag1479
ag1422
aVFig.
p2508
aV6b
p2509
ag1496
ag2502
aVprobably
p2510
aVrelated
p2511
aVto
p2512
ag1434
aVEuO
p2513
aV-
p2514
aVlike
p2515
aVenvironment
p2516
aVlocated
p2517
aVat
p2518
aVthe
p2519
aVsurface
p2520
aVof
p2521
aVthe
p2522
aVnanocrystals
p2523
ag2502
ag2442
aVEuO
p2524
ag2455
ag1434
aVTc
p2525
ag2448
aV69
p2526
ag1479
ag1507
asg14
(lp2527
g2462
ag2470
ag2478
ag2486
asg1399
I1
sg1509
I4
sg1510
(lp2528
Vname
p2529
aS'specifier'
p2530
aS'value'
p2531
aS'units'
p2532
asg1516
g1517
((lp2533
tp2534
Rp2535
sg1521
I1
sbasg1391
F0.5
sg1522
(dp2536
g1414
(dp2537
g1525
I0
sg1526
(lp2538
sg1528
I1
sg1529
g1530
((lp2539
(lp2540
g2442
a(lp2541
F1.0
aF1.0
aaatp2542
Rp2543
ssg2452
(dp2544
g1525
I0
sg1526
(lp2545
sg1528
I2
sg1529
g1530
((lp2546
(lp2547
g2455
a(lp2548
F1.0
aF0.5
aaa(lp2549
g1434
a(lp2550
F1.0
aF0.5
aaatp2551
Rp2552
ssg2445
(dp2553
g1525
I0
sg1526
(lp2554
sg1528
I1
sg1529
g1530
((lp2555
(lp2556
g2448
a(lp2557
F1.0
aF1.0
aaatp2558
Rp2559
ssg1419
(dp2560
g1525
I0
sg1526
(lp2561
sg1528
I1
sg1529
g1530
((lp2562
(lp2563
g1507
a(lp2564
F1.0
aF1.0
aaatp2565
Rp2566
ssg2449
(dp2567
g1525
I0
sg1526
(lp2568
sg1528
I1
sg1529
g1530
((lp2569
(lp2570
g1418
a(lp2571
F1.0
aF1.0
aaatp2572
Rp2573
sssg1576
S'2'
p2574
sg14
g2527
sg56
(ichemdataextractor.relex.pattern
Pattern
p2575
(dp2576
g1485
F1.0
sg1412
(dp2577
g2449
g2450
sg1414
g2440
sg2445
g2446
sg1419
g2443
sg2452
g2453
ssg1396
g2457
sg14
g2527
sg1581
g0
(g16
g2
Ntp2578
Rp2579
(dp2580
g20
(lp2581
g0
(g76
g2
Ntp2582
Rp2583
(dp2584
g42
(lp2585
sg41
Nsg39
g2442
sg44
I01
sbag0
(g16
g2
Ntp2586
Rp2587
(dp2588
g20
(lp2589
g0
(g22
g2
Ntp2590
Rp2591
(dp2592
g26
g28
sg41
Nsg42
(lp2593
sg44
I01
sbag0
(g31
g2
Ntp2594
Rp2595
(dp2596
g26
g65
sg41
Nsg42
(lp2597
sg44
I01
sbag0
(g22
g2
Ntp2598
Rp2599
(dp2600
g26
g269
sg41
Nsg42
(lp2601
sg44
I01
sbag0
(g63
g2
Ntp2602
Rp2603
(dp2604
g20
(lp2605
g0
(g16
g2
Ntp2606
Rp2607
(dp2608
g20
(lp2609
g0
(g338
g2
Ntp2610
Rp2611
(dp2612
g26
g343
sg41
Nsg42
(lp2613
sg44
I01
sbag0
(g225
g2
Ntp2614
Rp2615
(dp2616
g26
g480
sg41
Nsg42
(lp2617
sg44
I01
sbasg41
Nsg42
(lp2618
sg44
I01
sbag0
(g16
g2
Ntp2619
Rp2620
(dp2621
g20
(lp2622
g0
(g35
g2
Ntp2623
Rp2624
(dp2625
g39
g40
sg41
Nsg42
(lp2626
sg44
I01
sbag0
(g563
g2
Ntp2627
Rp2628
(dp2629
g26
g568
sg41
Nsg42
(lp2630
sg44
I01
sbasg41
Nsg42
(lp2631
sg44
I01
sbag0
(g46
g2
Ntp2632
Rp2633
(dp2634
g50
g583
sg55
Nsg41
Nsg56
g581
sg42
(lp2635
sg44
I01
sbag0
(g46
g2
Ntp2636
Rp2637
(dp2638
g50
g590
sg55
Nsg41
Nsg56
g588
sg42
(lp2639
sg44
I01
sbag0
(g46
g2
Ntp2640
Rp2641
(dp2642
g50
g597
sg55
Nsg41
Nsg56
V^BRN-?\u005cd+$
p2643
sg42
(lp2644
sg44
I01
sbag0
(g46
g2
Ntp2645
Rp2646
(dp2647
g50
g605
sg55
Nsg41
Nsg56
V^CHEMBL-?\u005cd+$
p2648
sg42
(lp2649
sg44
I01
sbag0
(g46
g2
Ntp2650
Rp2651
(dp2652
g50
g613
sg55
Nsg41
Nsg56
V^GSK-?\u005cd{3-7}$
p2653
sg42
(lp2654
sg44
I01
sbag0
(g46
g2
Ntp2655
Rp2656
(dp2657
g50
g621
sg55
Nsg41
Nsg56
V^\u005c[?(([1-9]\u005cd{2,7})|([5-9]\u005cd))-\u005cd\u005cd-\u005cd\u005c]?$
p2658
sg42
(lp2659
sg44
I01
sbag0
(g46
g2
Ntp2660
Rp2661
(dp2662
g50
g629
sg55
Nsg41
Nsg56
g627
sg42
(lp2663
sg44
I01
sbag0
(g46
g2
Ntp2664
Rp2665
(dp2666
g50
g636
sg55
Nsg41
Nsg56
g634
sg42
(lp2667
sg44
I01
sbag0
(g16
g2
Ntp2668
Rp2669
(dp2670
g20
(lp2671
g0
(g76
g2
Ntp2672
Rp2673
(dp2674
g39
g646
sg41
Nsg42
(lp2675
sg44
I01
sbag0
(g76
g2
Ntp2676
Rp2677
(dp2678
g39
g651
sg41
Nsg42
(lp2679
sg44
I01
sbasg41
Nsg42
(lp2680
sg44
I01
sbag0
(g16
g2
Ntp2681
Rp2682
(dp2683
g20
(lp2684
g0
(g76
g2
Ntp2685
Rp2686
(dp2687
g39
g661
sg41
Nsg42
(lp2688
sg44
I01
sbag0
(g76
g2
Ntp2689
Rp2690
(dp2691
g39
g651
sg41
Nsg42
(lp2692
sg44
I01
sbasg41
Nsg42
(lp2693
sg44
I01
sbag0
(g46
g2
Ntp2694
Rp2695
(dp2696
g50
g672
sg55
Nsg41
Nsg56
V^C\u005c(?\u005cd{1,3}\u005c)?(([HNOP]|Cl)\u005c(?\u005cd\u005cd?\u005c)?)+(\u005c(?\u005cd?[\u005c+\u005c-]\u005cd?\u005c)?)?$
p2697
sg42
(lp2698
sg44
I01
sbag0
(g46
g2
Ntp2699
Rp2700
(dp2701
g50
g680
sg55
Nsg41
Nsg56
V^(\u005c(?(A[glmru]|B[ahikr]|C[adeflmnorsu]|D[bsy]|E[rsu]|F[elmr]|G[ade]|H[efgos]|I[r][1-9]?|L[airuv]|M[dgnot]|N[abdeip]|Os|P[abdmotu]|R[abefghnu]|S[bcegimnr]|T[abehil]|U(u[opst])|Xe|Yb|Z[nr])\u005c)?([\u005cd.]+)?)+$
p2702
sg42
(lp2703
sg44
I01
sbag0
(g46
g2
Ntp2704
Rp2705
(dp2706
g50
g688
sg55
Nsg41
Nsg56
V^((\u005c(?\u005cd{2,3}\u005c)?)?(Fe|Ti|Mg|Ru|Cd|Se)\u005c(?(\u005cd\u005cd?|[IV]+)?\u005c)?((O|Hg)\u005c(?\u005cd?\u005cd?\u005c)?)?)+(\u005c(?\u005cd?[\u005c+\u005c-]\u005cd?\u005c)?)?$
p2707
sg42
(lp2708
sg44
I01
sbag0
(g46
g2
Ntp2709
Rp2710
(dp2711
g50
g696
sg55
Nsg41
Nsg56
V(NaOH|CaCl\u005cd?\u005cd?|EtOH|EtAc|MeOH|CF\u005cd|C\u005cd?\u005cd?H\u005cd\u005cd?)+$
p2712
sg42
(lp2713
sg44
I01
sbag0
(g46
g2
Ntp2714
Rp2715
(dp2716
g50
g704
sg55
Nsg41
Nsg56
V(NO\u005cd|BH4|Ca\u005c(2\u005c+\u005c)|Ti\u005c(0\u005c)2|\u005c(CH3\u005c)2CHOH|\u005c(CH3\u005c)2CO|\u005c(CH3\u005c)2NCOH|C2H5CN|CH2ClCH2Cl|CH3C6H5|CH3CN|CH3CO2H|CH3COCH3|CH3COOH|CH3NHCOH|CH3Ph|CH3SOCH3|Cl2CH2|ClCH2CH2Cl)
p2717
sg42
(lp2718
sg44
I01
sbag0
(g46
g2
Ntp2719
Rp2720
(dp2721
g50
g712
sg55
Nsg41
Nsg56
V^(\u005c(CD3\u005c)2CO|\u005c(CDCl2\u005c)2|C6D6|C2D5CN|CD2Cl2|CD3CN|CD3COCD3|CD3OD|CD3SOCD3|CDCl3|CH3OD|D2O|EtOD|MeOD)$
p2722
sg42
(lp2723
sg44
I01
sbag0
(g46
g2
Ntp2724
Rp2725
(dp2726
g50
g720
sg55
Nsg41
Nsg56
V^[\u005c[\u005c{\u005c(].*(NH\u005cd|H2O|NO\u005cd|C\u005cd?H\u005cd|C\u2013H|NBu4|CF3|CD3|CO2|[bp]i?py|\u005c(CO\u005c)|\u005cd,\u005cd['\u2032]?-|BF4|PF6|Cl\u005cd|Fe\u005cd|Ph\u005cd).*[\u005c]\u005c}\u005c)].*$
p2727
sg42
(lp2728
sg44
I01
sbag0
(g46
g2
Ntp2729
Rp2730
(dp2731
g50
g728
sg55
Nsg41
Nsg56
V^[\u005c[\u005c{\u005c(]{1,2}(Ru|Ph|Py|Cu|Ir|Pt|Et\u005cd).*[\u005c]\u005c}\u005c)]$
p2732
sg42
(lp2733
sg44
I01
sbag0
(g46
g2
Ntp2734
Rp2735
(dp2736
g50
g736
sg55
Nsg41
Nsg56
V^(GABA|NO|\u005c(\u005cd\u005c)H|KCl)$
p2737
sg42
(lp2738
sg44
I01
sbag0
(g362
g2
Ntp2739
Rp2740
(dp2741
g39
g743
sg41
Nsg42
(lp2742
sg44
I01
sbag0
(g76
g2
Ntp2743
Rp2744
(dp2745
g39
g748
sg41
Nsg42
(lp2746
sg44
I01
sbag0
(g76
g2
Ntp2747
Rp2748
(dp2749
g39
g753
sg41
Nsg42
(lp2750
sg44
I01
sbag0
(g76
g2
Ntp2751
Rp2752
(dp2753
g39
g758
sg41
Nsg42
(lp2754
sg44
I01
sbag0
(g76
g2
Ntp2755
Rp2756
(dp2757
g39
g763
sg41
Nsg42
(lp2758
sg44
I01
sbag0
(g76
g2
Ntp2759
Rp2760
(dp2761
g39
g768
sg41
Nsg42
(lp2762
sg44
I01
sbag0
(g76
g2
Ntp2763
Rp2764
(dp2765
g39
g773
sg41
Nsg42
(lp2766
sg44
I01
sbag0
(g76
g2
Ntp2767
Rp2768
(dp2769
g39
g778
sg41
Nsg42
(lp2770
sg44
I01
sbag0
(g76
g2
Ntp2771
Rp2772
(dp2773
g39
g783
sg41
Nsg42
(lp2774
sg44
I01
sbag0
(g76
g2
Ntp2775
Rp2776
(dp2777
g39
g788
sg41
Nsg42
(lp2778
sg44
I01
sbag0
(g76
g2
Ntp2779
Rp2780
(dp2781
g39
g793
sg41
Nsg42
(lp2782
sg44
I01
sbag0
(g362
g2
Ntp2783
Rp2784
(dp2785
g39
g798
sg41
Nsg42
(lp2786
sg44
I01
sbag0
(g16
g2
Ntp2787
Rp2788
(dp2789
g20
(lp2790
g0
(g76
g2
Ntp2791
Rp2792
(dp2793
g39
g807
sg41
Nsg42
(lp2794
sg44
I01
sbag0
(g63
g2
Ntp2795
Rp2796
(dp2797
g20
(lp2798
g0
(g76
g2
Ntp2799
Rp2800
(dp2801
g39
g816
sg41
Nsg42
(lp2802
sg44
I01
sbag0
(g76
g2
Ntp2803
Rp2804
(dp2805
g39
g821
sg41
Nsg42
(lp2806
sg44
I01
sbasg41
Nsg42
(lp2807
sg44
I01
sbasg41
Nsg42
(lp2808
sg44
I01
sbag0
(g362
g2
Ntp2809
Rp2810
(dp2811
g39
g798
sg41
Nsg42
(lp2812
sg44
I01
sbag0
(g76
g2
Ntp2813
Rp2814
(dp2815
g39
g832
sg41
Nsg42
(lp2816
sg44
I01
sbag0
(g16
g2
Ntp2817
Rp2818
(dp2819
g20
(lp2820
g0
(g76
g2
Ntp2821
Rp2822
(dp2823
g39
g841
sg41
Nsg42
(lp2824
sg44
I01
sbag0
(g46
g2
Ntp2825
Rp2826
(dp2827
g50
g182
sg55
Nsg41
Nsg56
V\u005c-
p2828
sg42
(lp2829
sg44
I01
sbag0
(g76
g2
Ntp2830
Rp2831
(dp2832
g39
g851
sg41
Nsg42
(lp2833
sg44
I01
sbasg41
Nsg42
(lp2834
sg44
I01
sbag0
(g46
g2
Ntp2835
Rp2836
(dp2837
g50
g858
sg55
Nsg41
Nsg56
V^(\u005c(?(A[glmru]|B[ahikr\u005c\u2032]|C[adeflmnorsu]|D[bsy]|E[rsu]|F[elmr]|G[ade]|H([fgos]|REE)|I[r]|L([ainruv]|REE)|M[dgnot]|N[abdeip]|O|P[abdmotu]|R([abefghnu]|E[EMOY]?)|S[bcegimnr]|T[abehil]|U(u[opst])|V|W|Xe|Yb?|Z[nr])\u005c)?(x|(1-x)|y|(1-y)|[\u005cd.]+)?)+$
p2838
sg42
(lp2839
sg44
I01
sbag0
(g46
g2
Ntp2840
Rp2841
(dp2842
g50
g866
sg55
Nsg41
Nsg56
V^((A[glmru]|B[ahikr]|C[adeflmnorsu]|D[bsy]|E[rsu]|F[elmr]|G[ade]|H[efgos]|I[r]|L[airuv]|M[dgnot]|N[abdeip]|Os|P[abdmotu]|R[abefghnu]|S[bcegimnr]|T[abehil]|U(u[opst])?|Xe|Yb|Z[nr])(x|(1-x)|(2-x)|(3-x)|y|(1-y)|(2-y)|(3-y)[\u005cd.]+)?)+$
p2843
sg42
(lp2844
sg44
I01
sbasg41
Nsg42
(lp2845
sg44
I01
sbag0
(g22
g2
Ntp2846
Rp2847
(dp2848
g26
g874
sg41
Nsg42
(lp2849
sg44
I01
sbag0
(g31
g2
Ntp2850
Rp2851
(dp2852
g26
g942
sg41
Nsg42
(lp2853
sg44
I01
sbasg41
g2468
sg42
(lp2854
g949
ag950
asg44
I01
sbag0
(g76
g2
Ntp2855
Rp2856
(dp2857
g42
(lp2858
sg41
Nsg39
g2455
sg44
I01
sbag0
(g76
g2
Ntp2859
Rp2860
(dp2861
g42
(lp2862
sg41
Nsg39
g1434
sg44
I01
sbag0
(g63
g2
Ntp2863
Rp2864
(dp2865
g20
(lp2866
g0
(g16
g2
Ntp2867
Rp2868
(dp2869
g20
(lp2870
g0
(g76
g2
Ntp2871
Rp2872
(dp2873
g39
g963
sg41
Nsg42
(lp2874
sg44
I01
sbag0
(g76
g2
Ntp2875
Rp2876
(dp2877
g39
g968
sg41
Nsg42
(lp2878
sg44
I01
sbag0
(g22
g2
Ntp2879
Rp2880
(dp2881
g26
g973
sg41
Nsg42
(lp2882
sg44
I01
sbag0
(g22
g2
Ntp2883
Rp2884
(dp2885
g26
g999
sg41
Nsg42
(lp2886
sg44
I01
sbag0
(g22
g2
Ntp2887
Rp2888
(dp2889
g26
g1010
sg41
Nsg42
(lp2890
sg44
I01
sbasg41
Nsg42
(lp2891
sg44
I01
sbag0
(g46
g2
Ntp2892
Rp2893
(dp2894
g50
g1003
sg55
Nsg41
Nsg56
g1001
sg42
(lp2895
sg44
I01
sbasg41
g2476
sg42
(lp2896
g949
asg44
I01
sbag0
(g76
g2
Ntp2897
Rp2898
(dp2899
g42
(lp2900
sg41
Nsg39
g2448
sg44
I01
sbag0
(g46
g2
Ntp2901
Rp2902
(dp2903
g50
g1027
sg55
Nsg41
g2484
sg56
g1025
sg42
(lp2904
sg44
I01
sbag0
(g46
g2
Ntp2905
Rp2906
(dp2907
g50
g1035
sg55
Nsg41
g2491
sg56
g1033
sg42
(lp2908
g1038
asg44
I01
sbag0
(g76
g2
Ntp2909
Rp2910
(dp2911
g42
(lp2912
sg41
Nsg39
g1507
sg44
I01
sbasg41
g1937
sg42
(lp2913
sg44
I01
sbsg1509
I4
sg1939
g2574
sg1510
g2528
sbsg1510
g2528
sba(ichemdataextractor.relex.cluster
Cluster
p2914
(dp2915
g1406
F1.0
sg1389
(lp2916
g0
(g1408
g2
Ntp2917
Rp2918
(dp2919
g1412
(dp2920
g1414
(dp2921
g1416
(lp2922
Vthe
p2923
assg1419
(dp2924
g1416
(lp2925
Vsuggests
p2926
assS'middle_2'
p2927
(dp2928
g1416
(lp2929
g1418
assS'middle_3'
p2930
(dp2931
g1416
(lp2932
g1496
aVof
p2933
assS'middle_1'
p2934
(dp2935
g1416
(lp2936
g1418
asssg1440
VThe much smaller value of TB compared to the Curie temperature ( 627 K ) of bulk Ni suggests that the thickness of the Ni shell is very small .
p2937
sg1396
(lp2938
g0
(g1443
g2
Ntp2939
Rp2940
(dp2941
g14
(g0
(g1447
g2
Ntp2942
Rp2943
(dp2944
g1451
VCurie temperature (
p2945
sg1453
g0
(g63
g2
Ntp2946
Rp2947
(dp2948
g20
g954
sg41
S'specifier_1'
p2949
sg42
g1021
sg44
I01
sbsg1458
I12
sg1459
I9
sbg0
(g1447
g2
Ntp2950
Rp2951
(dp2952
g1451
V627
p2953
sg1453
g0
(g46
g2
Ntp2954
Rp2955
(dp2956
g50
g1027
sg55
Nsg41
S'value_1'
p2957
sg56
g1025
sg42
g1029
sg44
I01
sbsg1458
I13
sg1459
I12
sbg0
(g1447
g2
Ntp2958
Rp2959
(dp2960
g1451
g1479
sg1453
g0
(g46
g2
Ntp2961
Rp2962
(dp2963
g50
g1035
sg55
Nsg41
S'units_1'
p2964
sg56
g1033
sg42
g1037
sg44
I01
sbsg1458
I14
sg1459
I13
sbg0
(g1447
g2
Ntp2965
Rp2966
(dp2967
g1451
Vbulk Ni
p2968
sg1453
g0
(g16
g2
Ntp2969
Rp2970
(dp2971
g20
g21
sg41
Vname_1
p2972
sg42
g948
sg44
I01
sbsg1458
I18
sg1459
I16
sbtp2973
sg1485
F1.0
sbasg1486
(lp2974
VThe
p2975
aVmuch
p2976
aVsmaller
p2977
aVvalue
p2978
aVof
p2979
aVTB
p2980
aVcompared
p2981
aVto
p2982
ag2923
aVCurie
p2983
aVtemperature
p2984
ag1422
aV627
p2985
ag1479
ag1496
ag2933
aVbulk
p2986
aVNi
p2987
ag2926
aVthat
p2988
aVthe
p2989
aVthickness
p2990
aVof
p2991
aVthe
p2992
aVNi
p2993
aVshell
p2994
aVis
p2995
aVvery
p2996
aVsmall
p2997
ag1507
asg14
(lp2998
g2943
ag2951
ag2959
ag2966
asg1399
I1
sg1509
I4
sg1510
(lp2999
S'specifier'
p3000
aS'value'
p3001
aS'units'
p3002
aVname
p3003
asg1516
g1517
((lp3004
tp3005
Rp3006
sg1521
I1
sbasg1391
F0.5
sg1522
(dp3007
g1414
(dp3008
g1525
I0
sg1526
(lp3009
sg1528
I1
sg1529
g1530
((lp3010
(lp3011
g2923
a(lp3012
F1.0
aF1.0
aaatp3013
Rp3014
ssg2934
(dp3015
g1525
I0
sg1526
(lp3016
sg1528
I1
sg1529
g1530
((lp3017
(lp3018
g1418
a(lp3019
F1.0
aF1.0
aaatp3020
Rp3021
ssg2927
(dp3022
g1525
I0
sg1526
(lp3023
sg1528
I1
sg1529
g1530
((lp3024
(lp3025
g1418
a(lp3026
F1.0
aF1.0
aaatp3027
Rp3028
ssg1419
(dp3029
g1525
I0
sg1526
(lp3030
sg1528
I1
sg1529
g1530
((lp3031
(lp3032
g2926
a(lp3033
F1.0
aF1.0
aaatp3034
Rp3035
ssg2930
(dp3036
g1525
I0
sg1526
(lp3037
sg1528
I2
sg1529
g1530
((lp3038
(lp3039
g1496
a(lp3040
F1.0
aF0.5
aaa(lp3041
g2933
a(lp3042
F1.0
aF0.5
aaatp3043
Rp3044
sssg1576
S'3'
p3045
sg14
g2998
sg56
(ichemdataextractor.relex.pattern
Pattern
p3046
(dp3047
g1485
F1.0
sg1412
(dp3048
g2930
g2931
sg1414
g2921
sg2927
g2928
sg1419
g2924
sg2934
g2935
ssg1396
g2938
sg14
g2998
sg1581
g0
(g16
g2
Ntp3049
Rp3050
(dp3051
g20
(lp3052
g0
(g76
g2
Ntp3053
Rp3054
(dp3055
g42
(lp3056
sg41
Nsg39
g2923
sg44
I01
sbag0
(g63
g2
Ntp3057
Rp3058
(dp3059
g20
(lp3060
g0
(g16
g2
Ntp3061
Rp3062
(dp3063
g20
(lp3064
g0
(g76
g2
Ntp3065
Rp3066
(dp3067
g39
g963
sg41
Nsg42
(lp3068
sg44
I01
sbag0
(g76
g2
Ntp3069
Rp3070
(dp3071
g39
g968
sg41
Nsg42
(lp3072
sg44
I01
sbag0
(g22
g2
Ntp3073
Rp3074
(dp3075
g26
g973
sg41
Nsg42
(lp3076
sg44
I01
sbag0
(g22
g2
Ntp3077
Rp3078
(dp3079
g26
g999
sg41
Nsg42
(lp3080
sg44
I01
sbag0
(g22
g2
Ntp3081
Rp3082
(dp3083
g26
g1010
sg41
Nsg42
(lp3084
sg44
I01
sbasg41
Nsg42
(lp3085
sg44
I01
sbag0
(g46
g2
Ntp3086
Rp3087
(dp3088
g50
g1003
sg55
Nsg41
Nsg56
g1001
sg42
(lp3089
sg44
I01
sbasg41
g2949
sg42
(lp3090
g949
asg44
I01
sbag0
(g46
g2
Ntp3091
Rp3092
(dp3093
g50
g1027
sg55
Nsg41
g2957
sg56
g1025
sg42
(lp3094
sg44
I01
sbag0
(g46
g2
Ntp3095
Rp3096
(dp3097
g50
g1035
sg55
Nsg41
g2964
sg56
g1033
sg42
(lp3098
g1038
asg44
I01
sbag0
(g76
g2
Ntp3099
Rp3100
(dp3101
g42
(lp3102
sg41
Nsg39
g1496
sg44
I01
sbag0
(g76
g2
Ntp3103
Rp3104
(dp3105
g42
(lp3106
sg41
Nsg39
g2933
sg44
I01
sbag0
(g16
g2
Ntp3107
Rp3108
(dp3109
g20
(lp3110
g0
(g22
g2
Ntp3111
Rp3112
(dp3113
g26
g28
sg41
Nsg42
(lp3114
sg44
I01
sbag0
(g31
g2
Ntp3115
Rp3116
(dp3117
g26
g65
sg41
Nsg42
(lp3118
sg44
I01
sbag0
(g22
g2
Ntp3119
Rp3120
(dp3121
g26
g269
sg41
Nsg42
(lp3122
sg44
I01
sbag0
(g63
g2
Ntp3123
Rp3124
(dp3125
g20
(lp3126
g0
(g16
g2
Ntp3127
Rp3128
(dp3129
g20
(lp3130
g0
(g338
g2
Ntp3131
Rp3132
(dp3133
g26
g343
sg41
Nsg42
(lp3134
sg44
I01
sbag0
(g225
g2
Ntp3135
Rp3136
(dp3137
g26
g480
sg41
Nsg42
(lp3138
sg44
I01
sbasg41
Nsg42
(lp3139
sg44
I01
sbag0
(g16
g2
Ntp3140
Rp3141
(dp3142
g20
(lp3143
g0
(g35
g2
Ntp3144
Rp3145
(dp3146
g39
g40
sg41
Nsg42
(lp3147
sg44
I01
sbag0
(g563
g2
Ntp3148
Rp3149
(dp3150
g26
g568
sg41
Nsg42
(lp3151
sg44
I01
sbasg41
Nsg42
(lp3152
sg44
I01
sbag0
(g46
g2
Ntp3153
Rp3154
(dp3155
g50
g583
sg55
Nsg41
Nsg56
g581
sg42
(lp3156
sg44
I01
sbag0
(g46
g2
Ntp3157
Rp3158
(dp3159
g50
g590
sg55
Nsg41
Nsg56
g588
sg42
(lp3160
sg44
I01
sbag0
(g46
g2
Ntp3161
Rp3162
(dp3163
g50
g597
sg55
Nsg41
Nsg56
V^BRN-?\u005cd+$
p3164
sg42
(lp3165
sg44
I01
sbag0
(g46
g2
Ntp3166
Rp3167
(dp3168
g50
g605
sg55
Nsg41
Nsg56
V^CHEMBL-?\u005cd+$
p3169
sg42
(lp3170
sg44
I01
sbag0
(g46
g2
Ntp3171
Rp3172
(dp3173
g50
g613
sg55
Nsg41
Nsg56
V^GSK-?\u005cd{3-7}$
p3174
sg42
(lp3175
sg44
I01
sbag0
(g46
g2
Ntp3176
Rp3177
(dp3178
g50
g621
sg55
Nsg41
Nsg56
V^\u005c[?(([1-9]\u005cd{2,7})|([5-9]\u005cd))-\u005cd\u005cd-\u005cd\u005c]?$
p3179
sg42
(lp3180
sg44
I01
sbag0
(g46
g2
Ntp3181
Rp3182
(dp3183
g50
g629
sg55
Nsg41
Nsg56
g627
sg42
(lp3184
sg44
I01
sbag0
(g46
g2
Ntp3185
Rp3186
(dp3187
g50
g636
sg55
Nsg41
Nsg56
g634
sg42
(lp3188
sg44
I01
sbag0
(g16
g2
Ntp3189
Rp3190
(dp3191
g20
(lp3192
g0
(g76
g2
Ntp3193
Rp3194
(dp3195
g39
g646
sg41
Nsg42
(lp3196
sg44
I01
sbag0
(g76
g2
Ntp3197
Rp3198
(dp3199
g39
g651
sg41
Nsg42
(lp3200
sg44
I01
sbasg41
Nsg42
(lp3201
sg44
I01
sbag0
(g16
g2
Ntp3202
Rp3203
(dp3204
g20
(lp3205
g0
(g76
g2
Ntp3206
Rp3207
(dp3208
g39
g661
sg41
Nsg42
(lp3209
sg44
I01
sbag0
(g76
g2
Ntp3210
Rp3211
(dp3212
g39
g651
sg41
Nsg42
(lp3213
sg44
I01
sbasg41
Nsg42
(lp3214
sg44
I01
sbag0
(g46
g2
Ntp3215
Rp3216
(dp3217
g50
g672
sg55
Nsg41
Nsg56
V^C\u005c(?\u005cd{1,3}\u005c)?(([HNOP]|Cl)\u005c(?\u005cd\u005cd?\u005c)?)+(\u005c(?\u005cd?[\u005c+\u005c-]\u005cd?\u005c)?)?$
p3218
sg42
(lp3219
sg44
I01
sbag0
(g46
g2
Ntp3220
Rp3221
(dp3222
g50
g680
sg55
Nsg41
Nsg56
V^(\u005c(?(A[glmru]|B[ahikr]|C[adeflmnorsu]|D[bsy]|E[rsu]|F[elmr]|G[ade]|H[efgos]|I[r][1-9]?|L[airuv]|M[dgnot]|N[abdeip]|Os|P[abdmotu]|R[abefghnu]|S[bcegimnr]|T[abehil]|U(u[opst])|Xe|Yb|Z[nr])\u005c)?([\u005cd.]+)?)+$
p3223
sg42
(lp3224
sg44
I01
sbag0
(g46
g2
Ntp3225
Rp3226
(dp3227
g50
g688
sg55
Nsg41
Nsg56
V^((\u005c(?\u005cd{2,3}\u005c)?)?(Fe|Ti|Mg|Ru|Cd|Se)\u005c(?(\u005cd\u005cd?|[IV]+)?\u005c)?((O|Hg)\u005c(?\u005cd?\u005cd?\u005c)?)?)+(\u005c(?\u005cd?[\u005c+\u005c-]\u005cd?\u005c)?)?$
p3228
sg42
(lp3229
sg44
I01
sbag0
(g46
g2
Ntp3230
Rp3231
(dp3232
g50
g696
sg55
Nsg41
Nsg56
V(NaOH|CaCl\u005cd?\u005cd?|EtOH|EtAc|MeOH|CF\u005cd|C\u005cd?\u005cd?H\u005cd\u005cd?)+$
p3233
sg42
(lp3234
sg44
I01
sbag0
(g46
g2
Ntp3235
Rp3236
(dp3237
g50
g704
sg55
Nsg41
Nsg56
V(NO\u005cd|BH4|Ca\u005c(2\u005c+\u005c)|Ti\u005c(0\u005c)2|\u005c(CH3\u005c)2CHOH|\u005c(CH3\u005c)2CO|\u005c(CH3\u005c)2NCOH|C2H5CN|CH2ClCH2Cl|CH3C6H5|CH3CN|CH3CO2H|CH3COCH3|CH3COOH|CH3NHCOH|CH3Ph|CH3SOCH3|Cl2CH2|ClCH2CH2Cl)
p3238
sg42
(lp3239
sg44
I01
sbag0
(g46
g2
Ntp3240
Rp3241
(dp3242
g50
g712
sg55
Nsg41
Nsg56
V^(\u005c(CD3\u005c)2CO|\u005c(CDCl2\u005c)2|C6D6|C2D5CN|CD2Cl2|CD3CN|CD3COCD3|CD3OD|CD3SOCD3|CDCl3|CH3OD|D2O|EtOD|MeOD)$
p3243
sg42
(lp3244
sg44
I01
sbag0
(g46
g2
Ntp3245
Rp3246
(dp3247
g50
g720
sg55
Nsg41
Nsg56
V^[\u005c[\u005c{\u005c(].*(NH\u005cd|H2O|NO\u005cd|C\u005cd?H\u005cd|C\u2013H|NBu4|CF3|CD3|CO2|[bp]i?py|\u005c(CO\u005c)|\u005cd,\u005cd['\u2032]?-|BF4|PF6|Cl\u005cd|Fe\u005cd|Ph\u005cd).*[\u005c]\u005c}\u005c)].*$
p3248
sg42
(lp3249
sg44
I01
sbag0
(g46
g2
Ntp3250
Rp3251
(dp3252
g50
g728
sg55
Nsg41
Nsg56
V^[\u005c[\u005c{\u005c(]{1,2}(Ru|Ph|Py|Cu|Ir|Pt|Et\u005cd).*[\u005c]\u005c}\u005c)]$
p3253
sg42
(lp3254
sg44
I01
sbag0
(g46
g2
Ntp3255
Rp3256
(dp3257
g50
g736
sg55
Nsg41
Nsg56
V^(GABA|NO|\u005c(\u005cd\u005c)H|KCl)$
p3258
sg42
(lp3259
sg44
I01
sbag0
(g362
g2
Ntp3260
Rp3261
(dp3262
g39
g743
sg41
Nsg42
(lp3263
sg44
I01
sbag0
(g76
g2
Ntp3264
Rp3265
(dp3266
g39
g748
sg41
Nsg42
(lp3267
sg44
I01
sbag0
(g76
g2
Ntp3268
Rp3269
(dp3270
g39
g753
sg41
Nsg42
(lp3271
sg44
I01
sbag0
(g76
g2
Ntp3272
Rp3273
(dp3274
g39
g758
sg41
Nsg42
(lp3275
sg44
I01
sbag0
(g76
g2
Ntp3276
Rp3277
(dp3278
g39
g763
sg41
Nsg42
(lp3279
sg44
I01
sbag0
(g76
g2
Ntp3280
Rp3281
(dp3282
g39
g768
sg41
Nsg42
(lp3283
sg44
I01
sbag0
(g76
g2
Ntp3284
Rp3285
(dp3286
g39
g773
sg41
Nsg42
(lp3287
sg44
I01
sbag0
(g76
g2
Ntp3288
Rp3289
(dp3290
g39
g778
sg41
Nsg42
(lp3291
sg44
I01
sbag0
(g76
g2
Ntp3292
Rp3293
(dp3294
g39
g783
sg41
Nsg42
(lp3295
sg44
I01
sbag0
(g76
g2
Ntp3296
Rp3297
(dp3298
g39
g788
sg41
Nsg42
(lp3299
sg44
I01
sbag0
(g76
g2
Ntp3300
Rp3301
(dp3302
g39
g793
sg41
Nsg42
(lp3303
sg44
I01
sbag0
(g362
g2
Ntp3304
Rp3305
(dp3306
g39
g798
sg41
Nsg42
(lp3307
sg44
I01
sbag0
(g16
g2
Ntp3308
Rp3309
(dp3310
g20
(lp3311
g0
(g76
g2
Ntp3312
Rp3313
(dp3314
g39
g807
sg41
Nsg42
(lp3315
sg44
I01
sbag0
(g63
g2
Ntp3316
Rp3317
(dp3318
g20
(lp3319
g0
(g76
g2
Ntp3320
Rp3321
(dp3322
g39
g816
sg41
Nsg42
(lp3323
sg44
I01
sbag0
(g76
g2
Ntp3324
Rp3325
(dp3326
g39
g821
sg41
Nsg42
(lp3327
sg44
I01
sbasg41
Nsg42
(lp3328
sg44
I01
sbasg41
Nsg42
(lp3329
sg44
I01
sbag0
(g362
g2
Ntp3330
Rp3331
(dp3332
g39
g798
sg41
Nsg42
(lp3333
sg44
I01
sbag0
(g76
g2
Ntp3334
Rp3335
(dp3336
g39
g832
sg41
Nsg42
(lp3337
sg44
I01
sbag0
(g16
g2
Ntp3338
Rp3339
(dp3340
g20
(lp3341
g0
(g76
g2
Ntp3342
Rp3343
(dp3344
g39
g841
sg41
Nsg42
(lp3345
sg44
I01
sbag0
(g46
g2
Ntp3346
Rp3347
(dp3348
g50
g182
sg55
Nsg41
Nsg56
V\u005c-
p3349
sg42
(lp3350
sg44
I01
sbag0
(g76
g2
Ntp3351
Rp3352
(dp3353
g39
g851
sg41
Nsg42
(lp3354
sg44
I01
sbasg41
Nsg42
(lp3355
sg44
I01
sbag0
(g46
g2
Ntp3356
Rp3357
(dp3358
g50
g858
sg55
Nsg41
Nsg56
V^(\u005c(?(A[glmru]|B[ahikr\u005c\u2032]|C[adeflmnorsu]|D[bsy]|E[rsu]|F[elmr]|G[ade]|H([fgos]|REE)|I[r]|L([ainruv]|REE)|M[dgnot]|N[abdeip]|O|P[abdmotu]|R([abefghnu]|E[EMOY]?)|S[bcegimnr]|T[abehil]|U(u[opst])|V|W|Xe|Yb?|Z[nr])\u005c)?(x|(1-x)|y|(1-y)|[\u005cd.]+)?)+$
p3359
sg42
(lp3360
sg44
I01
sbag0
(g46
g2
Ntp3361
Rp3362
(dp3363
g50
g866
sg55
Nsg41
Nsg56
V^((A[glmru]|B[ahikr]|C[adeflmnorsu]|D[bsy]|E[rsu]|F[elmr]|G[ade]|H[efgos]|I[r]|L[airuv]|M[dgnot]|N[abdeip]|Os|P[abdmotu]|R[abefghnu]|S[bcegimnr]|T[abehil]|U(u[opst])?|Xe|Yb|Z[nr])(x|(1-x)|(2-x)|(3-x)|y|(1-y)|(2-y)|(3-y)[\u005cd.]+)?)+$
p3364
sg42
(lp3365
sg44
I01
sbasg41
Nsg42
(lp3366
sg44
I01
sbag0
(g22
g2
Ntp3367
Rp3368
(dp3369
g26
g874
sg41
Nsg42
(lp3370
sg44
I01
sbag0
(g31
g2
Ntp3371
Rp3372
(dp3373
g26
g942
sg41
Nsg42
(lp3374
sg44
I01
sbasg41
g2972
sg42
(lp3375
g949
ag950
asg44
I01
sbag0
(g76
g2
Ntp3376
Rp3377
(dp3378
g42
(lp3379
sg41
Nsg39
g2926
sg44
I01
sbasg41
g1937
sg42
(lp3380
sg44
I01
sbsg1509
I4
sg1939
g3045
sg1510
g2999
sbsg1510
g2999
sba(ichemdataextractor.relex.cluster
Cluster
p3381
(dp3382
g1406
F1.0
sg1389
(lp3383
g0
(g1408
g2
Ntp3384
Rp3385
(dp3386
g1412
(dp3387
g1414
(dp3388
g1416
(lp3389
g1418
assg1419
(dp3390
g1416
(lp3391
Vand
p3392
assS'middle_2'
p3393
(dp3394
g1416
(lp3395
Vof
p3396
assS'middle_3'
p3397
(dp3398
g1416
(lp3399
g1418
assS'middle_1'
p3400
(dp3401
g1416
(lp3402
Vis
p3403
aVferromagnetic
p3404
aVwith
p3405
ag1434
asssg1440
VCoS2 is ferromagnetic with a Curie temperature of 116 K and Co9S8 is antiferromagnetic with a Nel temperature above the decomposition temperature .
p3406
sg1396
(lp3407
g0
(g1443
g2
Ntp3408
Rp3409
(dp3410
g14
(g0
(g1447
g2
Ntp3411
Rp3412
(dp3413
g1451
VCoS2
p3414
sg1453
g0
(g16
g2
Ntp3415
Rp3416
(dp3417
g20
g21
sg41
Vname_1
p3418
sg42
g948
sg44
I01
sbsg1458
I1
sg1459
I0
sbg0
(g1447
g2
Ntp3419
Rp3420
(dp3421
g1451
VCurie temperature
p3422
sg1453
g0
(g63
g2
Ntp3423
Rp3424
(dp3425
g20
g954
sg41
S'specifier_1'
p3426
sg42
g1021
sg44
I01
sbsg1458
I7
sg1459
I5
sbg0
(g1447
g2
Ntp3427
Rp3428
(dp3429
g1451
V116
p3430
sg1453
g0
(g46
g2
Ntp3431
Rp3432
(dp3433
g50
g1027
sg55
Nsg41
S'value_1'
p3434
sg56
g1025
sg42
g1029
sg44
I01
sbsg1458
I9
sg1459
I8
sbg0
(g1447
g2
Ntp3435
Rp3436
(dp3437
g1451
g1479
sg1453
g0
(g46
g2
Ntp3438
Rp3439
(dp3440
g50
g1035
sg55
Nsg41
S'units_1'
p3441
sg56
g1033
sg42
g1037
sg44
I01
sbsg1458
I10
sg1459
I9
sbtp3442
sg1485
F1.0
sbasg1486
(lp3443
VCoS2
p3444
ag3403
ag3404
ag3405
ag1434
aVCurie
p3445
aVtemperature
p3446
ag3396
aV116
p3447
ag1479
ag3392
aVCo9S8
p3448
aVis
p3449
aVantiferromagnetic
p3450
aVwith
p3451
ag1434
aVNel
p3452
aVtemperature
p3453
aVabove
p3454
aVthe
p3455
aVdecomposition
p3456
aVtemperature
p3457
ag1507
asg14
(lp3458
g3412
ag3420
ag3428
ag3436
asg1399
I1
sg1509
I4
sg1510
(lp3459
Vname
p3460
aS'specifier'
p3461
aS'value'
p3462
aS'units'
p3463
asg1516
g1517
((lp3464
tp3465
Rp3466
sg1521
I1
sbasg1391
F0.5
sg1522
(dp3467
g1414
(dp3468
g1525
I0
sg1526
(lp3469
sg1528
I1
sg1529
g1530
((lp3470
(lp3471
g1418
a(lp3472
F1.0
aF1.0
aaatp3473
Rp3474
ssg3400
(dp3475
g1525
I0
sg1526
(lp3476
sg1528
I4
sg1529
g1530
((lp3477
(lp3478
g3403
a(lp3479
F1.0
aF0.25
aaa(lp3480
g3404
a(lp3481
F1.0
aF0.25
aaa(lp3482
g3405
a(lp3483
F1.0
aF0.25
aaa(lp3484
g1434
a(lp3485
F1.0
aF0.25
aaatp3486
Rp3487
ssg3393
(dp3488
g1525
I0
sg1526
(lp3489
sg1528
I1
sg1529
g1530
((lp3490
(lp3491
g3396
a(lp3492
F1.0
aF1.0
aaatp3493
Rp3494
ssg1419
(dp3495
g1525
I0
sg1526
(lp3496
sg1528
I1
sg1529
g1530
((lp3497
(lp3498
g3392
a(lp3499
F1.0
aF1.0
aaatp3500
Rp3501
ssg3397
(dp3502
g1525
I0
sg1526
(lp3503
sg1528
I1
sg1529
g1530
((lp3504
(lp3505
g1418
a(lp3506
F1.0
aF1.0
aaatp3507
Rp3508
sssg1576
S'4'
p3509
sg14
g3458
sg56
(ichemdataextractor.relex.pattern
Pattern
p3510
(dp3511
g1485
F1.0
sg1412
(dp3512
g3397
g3398
sg1414
g3388
sg3393
g3394
sg1419
g3390
sg3400
g3401
ssg1396
g3407
sg14
g3458
sg1581
g0
(g16
g2
Ntp3513
Rp3514
(dp3515
g20
(lp3516
g0
(g16
g2
Ntp3517
Rp3518
(dp3519
g20
(lp3520
g0
(g22
g2
Ntp3521
Rp3522
(dp3523
g26
g28
sg41
Nsg42
(lp3524
sg44
I01
sbag0
(g31
g2
Ntp3525
Rp3526
(dp3527
g26
g65
sg41
Nsg42
(lp3528
sg44
I01
sbag0
(g22
g2
Ntp3529
Rp3530
(dp3531
g26
g269
sg41
Nsg42
(lp3532
sg44
I01
sbag0
(g63
g2
Ntp3533
Rp3534
(dp3535
g20
(lp3536
g0
(g16
g2
Ntp3537
Rp3538
(dp3539
g20
(lp3540
g0
(g338
g2
Ntp3541
Rp3542
(dp3543
g26
g343
sg41
Nsg42
(lp3544
sg44
I01
sbag0
(g225
g2
Ntp3545
Rp3546
(dp3547
g26
g480
sg41
Nsg42
(lp3548
sg44
I01
sbasg41
Nsg42
(lp3549
sg44
I01
sbag0
(g16
g2
Ntp3550
Rp3551
(dp3552
g20
(lp3553
g0
(g35
g2
Ntp3554
Rp3555
(dp3556
g39
g40
sg41
Nsg42
(lp3557
sg44
I01
sbag0
(g563
g2
Ntp3558
Rp3559
(dp3560
g26
g568
sg41
Nsg42
(lp3561
sg44
I01
sbasg41
Nsg42
(lp3562
sg44
I01
sbag0
(g46
g2
Ntp3563
Rp3564
(dp3565
g50
g583
sg55
Nsg41
Nsg56
g581
sg42
(lp3566
sg44
I01
sbag0
(g46
g2
Ntp3567
Rp3568
(dp3569
g50
g590
sg55
Nsg41
Nsg56
g588
sg42
(lp3570
sg44
I01
sbag0
(g46
g2
Ntp3571
Rp3572
(dp3573
g50
g597
sg55
Nsg41
Nsg56
V^BRN-?\u005cd+$
p3574
sg42
(lp3575
sg44
I01
sbag0
(g46
g2
Ntp3576
Rp3577
(dp3578
g50
g605
sg55
Nsg41
Nsg56
V^CHEMBL-?\u005cd+$
p3579
sg42
(lp3580
sg44
I01
sbag0
(g46
g2
Ntp3581
Rp3582
(dp3583
g50
g613
sg55
Nsg41
Nsg56
V^GSK-?\u005cd{3-7}$
p3584
sg42
(lp3585
sg44
I01
sbag0
(g46
g2
Ntp3586
Rp3587
(dp3588
g50
g621
sg55
Nsg41
Nsg56
V^\u005c[?(([1-9]\u005cd{2,7})|([5-9]\u005cd))-\u005cd\u005cd-\u005cd\u005c]?$
p3589
sg42
(lp3590
sg44
I01
sbag0
(g46
g2
Ntp3591
Rp3592
(dp3593
g50
g629
sg55
Nsg41
Nsg56
g627
sg42
(lp3594
sg44
I01
sbag0
(g46
g2
Ntp3595
Rp3596
(dp3597
g50
g636
sg55
Nsg41
Nsg56
g634
sg42
(lp3598
sg44
I01
sbag0
(g16
g2
Ntp3599
Rp3600
(dp3601
g20
(lp3602
g0
(g76
g2
Ntp3603
Rp3604
(dp3605
g39
g646
sg41
Nsg42
(lp3606
sg44
I01
sbag0
(g76
g2
Ntp3607
Rp3608
(dp3609
g39
g651
sg41
Nsg42
(lp3610
sg44
I01
sbasg41
Nsg42
(lp3611
sg44
I01
sbag0
(g16
g2
Ntp3612
Rp3613
(dp3614
g20
(lp3615
g0
(g76
g2
Ntp3616
Rp3617
(dp3618
g39
g661
sg41
Nsg42
(lp3619
sg44
I01
sbag0
(g76
g2
Ntp3620
Rp3621
(dp3622
g39
g651
sg41
Nsg42
(lp3623
sg44
I01
sbasg41
Nsg42
(lp3624
sg44
I01
sbag0
(g46
g2
Ntp3625
Rp3626
(dp3627
g50
g672
sg55
Nsg41
Nsg56
V^C\u005c(?\u005cd{1,3}\u005c)?(([HNOP]|Cl)\u005c(?\u005cd\u005cd?\u005c)?)+(\u005c(?\u005cd?[\u005c+\u005c-]\u005cd?\u005c)?)?$
p3628
sg42
(lp3629
sg44
I01
sbag0
(g46
g2
Ntp3630
Rp3631
(dp3632
g50
g680
sg55
Nsg41
Nsg56
V^(\u005c(?(A[glmru]|B[ahikr]|C[adeflmnorsu]|D[bsy]|E[rsu]|F[elmr]|G[ade]|H[efgos]|I[r][1-9]?|L[airuv]|M[dgnot]|N[abdeip]|Os|P[abdmotu]|R[abefghnu]|S[bcegimnr]|T[abehil]|U(u[opst])|Xe|Yb|Z[nr])\u005c)?([\u005cd.]+)?)+$
p3633
sg42
(lp3634
sg44
I01
sbag0
(g46
g2
Ntp3635
Rp3636
(dp3637
g50
g688
sg55
Nsg41
Nsg56
V^((\u005c(?\u005cd{2,3}\u005c)?)?(Fe|Ti|Mg|Ru|Cd|Se)\u005c(?(\u005cd\u005cd?|[IV]+)?\u005c)?((O|Hg)\u005c(?\u005cd?\u005cd?\u005c)?)?)+(\u005c(?\u005cd?[\u005c+\u005c-]\u005cd?\u005c)?)?$
p3638
sg42
(lp3639
sg44
I01
sbag0
(g46
g2
Ntp3640
Rp3641
(dp3642
g50
g696
sg55
Nsg41
Nsg56
V(NaOH|CaCl\u005cd?\u005cd?|EtOH|EtAc|MeOH|CF\u005cd|C\u005cd?\u005cd?H\u005cd\u005cd?)+$
p3643
sg42
(lp3644
sg44
I01
sbag0
(g46
g2
Ntp3645
Rp3646
(dp3647
g50
g704
sg55
Nsg41
Nsg56
V(NO\u005cd|BH4|Ca\u005c(2\u005c+\u005c)|Ti\u005c(0\u005c)2|\u005c(CH3\u005c)2CHOH|\u005c(CH3\u005c)2CO|\u005c(CH3\u005c)2NCOH|C2H5CN|CH2ClCH2Cl|CH3C6H5|CH3CN|CH3CO2H|CH3COCH3|CH3COOH|CH3NHCOH|CH3Ph|CH3SOCH3|Cl2CH2|ClCH2CH2Cl)
p3648
sg42
(lp3649
sg44
I01
sbag0
(g46
g2
Ntp3650
Rp3651
(dp3652
g50
g712
sg55
Nsg41
Nsg56
V^(\u005c(CD3\u005c)2CO|\u005c(CDCl2\u005c)2|C6D6|C2D5CN|CD2Cl2|CD3CN|CD3COCD3|CD3OD|CD3SOCD3|CDCl3|CH3OD|D2O|EtOD|MeOD)$
p3653
sg42
(lp3654
sg44
I01
sbag0
(g46
g2
Ntp3655
Rp3656
(dp3657
g50
g720
sg55
Nsg41
Nsg56
V^[\u005c[\u005c{\u005c(].*(NH\u005cd|H2O|NO\u005cd|C\u005cd?H\u005cd|C\u2013H|NBu4|CF3|CD3|CO2|[bp]i?py|\u005c(CO\u005c)|\u005cd,\u005cd['\u2032]?-|BF4|PF6|Cl\u005cd|Fe\u005cd|Ph\u005cd).*[\u005c]\u005c}\u005c)].*$
p3658
sg42
(lp3659
sg44
I01
sbag0
(g46
g2
Ntp3660
Rp3661
(dp3662
g50
g728
sg55
Nsg41
Nsg56
V^[\u005c[\u005c{\u005c(]{1,2}(Ru|Ph|Py|Cu|Ir|Pt|Et\u005cd).*[\u005c]\u005c}\u005c)]$
p3663
sg42
(lp3664
sg44
I01
sbag0
(g46
g2
Ntp3665
Rp3666
(dp3667
g50
g736
sg55
Nsg41
Nsg56
V^(GABA|NO|\u005c(\u005cd\u005c)H|KCl)$
p3668
sg42
(lp3669
sg44
I01
sbag0
(g362
g2
Ntp3670
Rp3671
(dp3672
g39
g743
sg41
Nsg42
(lp3673
sg44
I01
sbag0
(g76
g2
Ntp3674
Rp3675
(dp3676
g39
g748
sg41
Nsg42
(lp3677
sg44
I01
sbag0
(g76
g2
Ntp3678
Rp3679
(dp3680
g39
g753
sg41
Nsg42
(lp3681
sg44
I01
sbag0
(g76
g2
Ntp3682
Rp3683
(dp3684
g39
g758
sg41
Nsg42
(lp3685
sg44
I01
sbag0
(g76
g2
Ntp3686
Rp3687
(dp3688
g39
g763
sg41
Nsg42
(lp3689
sg44
I01
sbag0
(g76
g2
Ntp3690
Rp3691
(dp3692
g39
g768
sg41
Nsg42
(lp3693
sg44
I01
sbag0
(g76
g2
Ntp3694
Rp3695
(dp3696
g39
g773
sg41
Nsg42
(lp3697
sg44
I01
sbag0
(g76
g2
Ntp3698
Rp3699
(dp3700
g39
g778
sg41
Nsg42
(lp3701
sg44
I01
sbag0
(g76
g2
Ntp3702
Rp3703
(dp3704
g39
g783
sg41
Nsg42
(lp3705
sg44
I01
sbag0
(g76
g2
Ntp3706
Rp3707
(dp3708
g39
g788
sg41
Nsg42
(lp3709
sg44
I01
sbag0
(g76
g2
Ntp3710
Rp3711
(dp3712
g39
g793
sg41
Nsg42
(lp3713
sg44
I01
sbag0
(g362
g2
Ntp3714
Rp3715
(dp3716
g39
g798
sg41
Nsg42
(lp3717
sg44
I01
sbag0
(g16
g2
Ntp3718
Rp3719
(dp3720
g20
(lp3721
g0
(g76
g2
Ntp3722
Rp3723
(dp3724
g39
g807
sg41
Nsg42
(lp3725
sg44
I01
sbag0
(g63
g2
Ntp3726
Rp3727
(dp3728
g20
(lp3729
g0
(g76
g2
Ntp3730
Rp3731
(dp3732
g39
g816
sg41
Nsg42
(lp3733
sg44
I01
sbag0
(g76
g2
Ntp3734
Rp3735
(dp3736
g39
g821
sg41
Nsg42
(lp3737
sg44
I01
sbasg41
Nsg42
(lp3738
sg44
I01
sbasg41
Nsg42
(lp3739
sg44
I01
sbag0
(g362
g2
Ntp3740
Rp3741
(dp3742
g39
g798
sg41
Nsg42
(lp3743
sg44
I01
sbag0
(g76
g2
Ntp3744
Rp3745
(dp3746
g39
g832
sg41
Nsg42
(lp3747
sg44
I01
sbag0
(g16
g2
Ntp3748
Rp3749
(dp3750
g20
(lp3751
g0
(g76
g2
Ntp3752
Rp3753
(dp3754
g39
g841
sg41
Nsg42
(lp3755
sg44
I01
sbag0
(g46
g2
Ntp3756
Rp3757
(dp3758
g50
g182
sg55
Nsg41
Nsg56
V\u005c-
p3759
sg42
(lp3760
sg44
I01
sbag0
(g76
g2
Ntp3761
Rp3762
(dp3763
g39
g851
sg41
Nsg42
(lp3764
sg44
I01
sbasg41
Nsg42
(lp3765
sg44
I01
sbag0
(g46
g2
Ntp3766
Rp3767
(dp3768
g50
g858
sg55
Nsg41
Nsg56
V^(\u005c(?(A[glmru]|B[ahikr\u005c\u2032]|C[adeflmnorsu]|D[bsy]|E[rsu]|F[elmr]|G[ade]|H([fgos]|REE)|I[r]|L([ainruv]|REE)|M[dgnot]|N[abdeip]|O|P[abdmotu]|R([abefghnu]|E[EMOY]?)|S[bcegimnr]|T[abehil]|U(u[opst])|V|W|Xe|Yb?|Z[nr])\u005c)?(x|(1-x)|y|(1-y)|[\u005cd.]+)?)+$
p3769
sg42
(lp3770
sg44
I01
sbag0
(g46
g2
Ntp3771
Rp3772
(dp3773
g50
g866
sg55
Nsg41
Nsg56
V^((A[glmru]|B[ahikr]|C[adeflmnorsu]|D[bsy]|E[rsu]|F[elmr]|G[ade]|H[efgos]|I[r]|L[airuv]|M[dgnot]|N[abdeip]|Os|P[abdmotu]|R[abefghnu]|S[bcegimnr]|T[abehil]|U(u[opst])?|Xe|Yb|Z[nr])(x|(1-x)|(2-x)|(3-x)|y|(1-y)|(2-y)|(3-y)[\u005cd.]+)?)+$
p3774
sg42
(lp3775
sg44
I01
sbasg41
Nsg42
(lp3776
sg44
I01
sbag0
(g22
g2
Ntp3777
Rp3778
(dp3779
g26
g874
sg41
Nsg42
(lp3780
sg44
I01
sbag0
(g31
g2
Ntp3781
Rp3782
(dp3783
g26
g942
sg41
Nsg42
(lp3784
sg44
I01
sbasg41
g3418
sg42
(lp3785
g949
ag950
asg44
I01
sbag0
(g76
g2
Ntp3786
Rp3787
(dp3788
g42
(lp3789
sg41
Nsg39
g3403
sg44
I01
sbag0
(g76
g2
Ntp3790
Rp3791
(dp3792
g42
(lp3793
sg41
Nsg39
g3404
sg44
I01
sbag0
(g76
g2
Ntp3794
Rp3795
(dp3796
g42
(lp3797
sg41
Nsg39
g3405
sg44
I01
sbag0
(g76
g2
Ntp3798
Rp3799
(dp3800
g42
(lp3801
sg41
Nsg39
g1434
sg44
I01
sbag0
(g63
g2
Ntp3802
Rp3803
(dp3804
g20
(lp3805
g0
(g16
g2
Ntp3806
Rp3807
(dp3808
g20
(lp3809
g0
(g76
g2
Ntp3810
Rp3811
(dp3812
g39
g963
sg41
Nsg42
(lp3813
sg44
I01
sbag0
(g76
g2
Ntp3814
Rp3815
(dp3816
g39
g968
sg41
Nsg42
(lp3817
sg44
I01
sbag0
(g22
g2
Ntp3818
Rp3819
(dp3820
g26
g973
sg41
Nsg42
(lp3821
sg44
I01
sbag0
(g22
g2
Ntp3822
Rp3823
(dp3824
g26
g999
sg41
Nsg42
(lp3825
sg44
I01
sbag0
(g22
g2
Ntp3826
Rp3827
(dp3828
g26
g1010
sg41
Nsg42
(lp3829
sg44
I01
sbasg41
Nsg42
(lp3830
sg44
I01
sbag0
(g46
g2
Ntp3831
Rp3832
(dp3833
g50
g1003
sg55
Nsg41
Nsg56
g1001
sg42
(lp3834
sg44
I01
sbasg41
g3426
sg42
(lp3835
g949
asg44
I01
sbag0
(g76
g2
Ntp3836
Rp3837
(dp3838
g42
(lp3839
sg41
Nsg39
g3396
sg44
I01
sbag0
(g46
g2
Ntp3840
Rp3841
(dp3842
g50
g1027
sg55
Nsg41
g3434
sg56
g1025
sg42
(lp3843
sg44
I01
sbag0
(g46
g2
Ntp3844
Rp3845
(dp3846
g50
g1035
sg55
Nsg41
g3441
sg56
g1033
sg42
(lp3847
g1038
asg44
I01
sbag0
(g76
g2
Ntp3848
Rp3849
(dp3850
g42
(lp3851
sg41
Nsg39
g3392
sg44
I01
sbasg41
g1937
sg42
(lp3852
sg44
I01
sbsg1509
I4
sg1939
g3509
sg1510
g3459
sbsg1510
g3459
sba(ichemdataextractor.relex.cluster
Cluster
p3853
(dp3854
g1406
F1.0
sg1389
(lp3855
g0
(g1408
g2
Ntp3856
Rp3857
(dp3858
g1412
(dp3859
g1414
(dp3860
g1416
(lp3861
g2502
assg1419
(dp3862
g1416
(lp3863
g1496
assS'middle_2'
p3864
(dp3865
g1416
(lp3866
V\u223c
p3867
assS'middle_3'
p3868
(dp3869
g1416
(lp3870
g1418
assS'middle_1'
p3871
(dp3872
g1416
(lp3873
Vhas
p3874
aVrecently
p3875
aVattracted
p3876
aVmuch
p3877
aVattention
p3878
aVdue
p3879
aVto
p3880
aVits
p3881
aVhigh
p3882
asssg1440
VIn the family of magnetic NPs , magnetite ( Fe3O4 ) has recently attracted much attention due to its high Curie temperature ( Tc \u223c 850 K ) , good biocompatibility , high magnetic moment , and relatively good air - stability .
p3883
sg1396
(lp3884
g0
(g1443
g2
Ntp3885
Rp3886
(dp3887
g14
(g0
(g1447
g2
Ntp3888
Rp3889
(dp3890
g1451
Vmagnetite ( Fe3O4 )
p3891
sg1453
g0
(g16
g2
Ntp3892
Rp3893
(dp3894
g20
g21
sg41
Vname_1
p3895
sg42
g948
sg44
I01
sbsg1458
I11
sg1459
I7
sbg0
(g1447
g2
Ntp3896
Rp3897
(dp3898
g1451
VCurie temperature ( Tc
p3899
sg1453
g0
(g63
g2
Ntp3900
Rp3901
(dp3902
g20
g954
sg41
S'specifier_1'
p3903
sg42
g1021
sg44
I01
sbsg1458
I24
sg1459
I20
sbg0
(g1447
g2
Ntp3904
Rp3905
(dp3906
g1451
V850
p3907
sg1453
g0
(g46
g2
Ntp3908
Rp3909
(dp3910
g50
g1027
sg55
Nsg41
S'value_1'
p3911
sg56
g1025
sg42
g1029
sg44
I01
sbsg1458
I26
sg1459
I25
sbg0
(g1447
g2
Ntp3912
Rp3913
(dp3914
g1451
g1479
sg1453
g0
(g46
g2
Ntp3915
Rp3916
(dp3917
g50
g1035
sg55
Nsg41
S'units_1'
p3918
sg56
g1033
sg42
g1037
sg44
I01
sbsg1458
I27
sg1459
I26
sbtp3919
sg1485
F1.0
sbasg1486
(lp3920
VIn
p3921
aVthe
p3922
aVfamily
p3923
aVof
p3924
aVmagnetic
p3925
aVNPs
p3926
ag2502
aVmagnetite
p3927
ag1422
aVFe3O4
p3928
ag1496
ag3874
ag3875
ag3876
ag3877
ag3878
ag3879
ag3880
ag3881
ag3882
aVCurie
p3929
aVtemperature
p3930
ag1422
aVTc
p3931
ag3867
aV850
p3932
ag1479
ag1496
ag2502
aVgood
p3933
aVbiocompatibility
p3934
ag2502
aVhigh
p3935
aVmagnetic
p3936
aVmoment
p3937
ag2502
aVand
p3938
aVrelatively
p3939
aVgood
p3940
aVair
p3941
ag2514
aVstability
p3942
ag1507
asg14
(lp3943
g3889
ag3897
ag3905
ag3913
asg1399
I1
sg1509
I4
sg1510
(lp3944
Vname
p3945
aS'specifier'
p3946
aS'value'
p3947
aS'units'
p3948
asg1516
g1517
((lp3949
tp3950
Rp3951
sg1521
I1
sbasg1391
F0.5
sg1522
(dp3952
g1414
(dp3953
g1525
I0
sg1526
(lp3954
sg1528
I1
sg1529
g1530
((lp3955
(lp3956
g2502
a(lp3957
F1.0
aF1.0
aaatp3958
Rp3959
ssg3871
(dp3960
g1525
I0
sg1526
(lp3961
sg1528
I9
sg1529
g1530
((lp3962
(lp3963
g3874
a(lp3964
F1.0
aF0.1111111111111111
aaa(lp3965
g3875
a(lp3966
F1.0
aF0.1111111111111111
aaa(lp3967
g3876
a(lp3968
F1.0
aF0.1111111111111111
aaa(lp3969
g3877
a(lp3970
F1.0
aF0.1111111111111111
aaa(lp3971
g3878
a(lp3972
F1.0
aF0.1111111111111111
aaa(lp3973
g3879
a(lp3974
F1.0
aF0.1111111111111111
aaa(lp3975
g3880
a(lp3976
F1.0
aF0.1111111111111111
aaa(lp3977
g3881
a(lp3978
F1.0
aF0.1111111111111111
aaa(lp3979
g3882
a(lp3980
F1.0
aF0.1111111111111111
aaatp3981
Rp3982
ssg3864
(dp3983
g1525
I0
sg1526
(lp3984
sg1528
I1
sg1529
g1530
((lp3985
(lp3986
g3867
a(lp3987
F1.0
aF1.0
aaatp3988
Rp3989
ssg1419
(dp3990
g1525
I0
sg1526
(lp3991
sg1528
I1
sg1529
g1530
((lp3992
(lp3993
g1496
a(lp3994
F1.0
aF1.0
aaatp3995
Rp3996
ssg3868
(dp3997
g1525
I0
sg1526
(lp3998
sg1528
I1
sg1529
g1530
((lp3999
(lp4000
g1418
a(lp4001
F1.0
aF1.0
aaatp4002
Rp4003
sssg1576
S'5'
p4004
sg14
g3943
sg56
(ichemdataextractor.relex.pattern
Pattern
p4005
(dp4006
g1485
F1.0
sg1412
(dp4007
g3868
g3869
sg1414
g3860
sg3864
g3865
sg1419
g3862
sg3871
g3872
ssg1396
g3884
sg14
g3943
sg1581
g0
(g16
g2
Ntp4008
Rp4009
(dp4010
g20
(lp4011
g0
(g76
g2
Ntp4012
Rp4013
(dp4014
g42
(lp4015
sg41
Nsg39
g2502
sg44
I01
sbag0
(g16
g2
Ntp4016
Rp4017
(dp4018
g20
(lp4019
g0
(g22
g2
Ntp4020
Rp4021
(dp4022
g26
g28
sg41
Nsg42
(lp4023
sg44
I01
sbag0
(g31
g2
Ntp4024
Rp4025
(dp4026
g26
g65
sg41
Nsg42
(lp4027
sg44
I01
sbag0
(g22
g2
Ntp4028
Rp4029
(dp4030
g26
g269
sg41
Nsg42
(lp4031
sg44
I01
sbag0
(g63
g2
Ntp4032
Rp4033
(dp4034
g20
(lp4035
g0
(g16
g2
Ntp4036
Rp4037
(dp4038
g20
(lp4039
g0
(g338
g2
Ntp4040
Rp4041
(dp4042
g26
g343
sg41
Nsg42
(lp4043
sg44
I01
sbag0
(g225
g2
Ntp4044
Rp4045
(dp4046
g26
g480
sg41
Nsg42
(lp4047
sg44
I01
sbasg41
Nsg42
(lp4048
sg44
I01
sbag0
(g16
g2
Ntp4049
Rp4050
(dp4051
g20
(lp4052
g0
(g35
g2
Ntp4053
Rp4054
(dp4055
g39
g40
sg41
Nsg42
(lp4056
sg44
I01
sbag0
(g563
g2
Ntp4057
Rp4058
(dp4059
g26
g568
sg41
Nsg42
(lp4060
sg44
I01
sbasg41
Nsg42
(lp4061
sg44
I01
sbag0
(g46
g2
Ntp4062
Rp4063
(dp4064
g50
g583
sg55
Nsg41
Nsg56
g581
sg42
(lp4065
sg44
I01
sbag0
(g46
g2
Ntp4066
Rp4067
(dp4068
g50
g590
sg55
Nsg41
Nsg56
g588
sg42
(lp4069
sg44
I01
sbag0
(g46
g2
Ntp4070
Rp4071
(dp4072
g50
g597
sg55
Nsg41
Nsg56
V^BRN-?\u005cd+$
p4073
sg42
(lp4074
sg44
I01
sbag0
(g46
g2
Ntp4075
Rp4076
(dp4077
g50
g605
sg55
Nsg41
Nsg56
V^CHEMBL-?\u005cd+$
p4078
sg42
(lp4079
sg44
I01
sbag0
(g46
g2
Ntp4080
Rp4081
(dp4082
g50
g613
sg55
Nsg41
Nsg56
V^GSK-?\u005cd{3-7}$
p4083
sg42
(lp4084
sg44
I01
sbag0
(g46
g2
Ntp4085
Rp4086
(dp4087
g50
g621
sg55
Nsg41
Nsg56
V^\u005c[?(([1-9]\u005cd{2,7})|([5-9]\u005cd))-\u005cd\u005cd-\u005cd\u005c]?$
p4088
sg42
(lp4089
sg44
I01
sbag0
(g46
g2
Ntp4090
Rp4091
(dp4092
g50
g629
sg55
Nsg41
Nsg56
g627
sg42
(lp4093
sg44
I01
sbag0
(g46
g2
Ntp4094
Rp4095
(dp4096
g50
g636
sg55
Nsg41
Nsg56
g634
sg42
(lp4097
sg44
I01
sbag0
(g16
g2
Ntp4098
Rp4099
(dp4100
g20
(lp4101
g0
(g76
g2
Ntp4102
Rp4103
(dp4104
g39
g646
sg41
Nsg42
(lp4105
sg44
I01
sbag0
(g76
g2
Ntp4106
Rp4107
(dp4108
g39
g651
sg41
Nsg42
(lp4109
sg44
I01
sbasg41
Nsg42
(lp4110
sg44
I01
sbag0
(g16
g2
Ntp4111
Rp4112
(dp4113
g20
(lp4114
g0
(g76
g2
Ntp4115
Rp4116
(dp4117
g39
g661
sg41
Nsg42
(lp4118
sg44
I01
sbag0
(g76
g2
Ntp4119
Rp4120
(dp4121
g39
g651
sg41
Nsg42
(lp4122
sg44
I01
sbasg41
Nsg42
(lp4123
sg44
I01
sbag0
(g46
g2
Ntp4124
Rp4125
(dp4126
g50
g672
sg55
Nsg41
Nsg56
V^C\u005c(?\u005cd{1,3}\u005c)?(([HNOP]|Cl)\u005c(?\u005cd\u005cd?\u005c)?)+(\u005c(?\u005cd?[\u005c+\u005c-]\u005cd?\u005c)?)?$
p4127
sg42
(lp4128
sg44
I01
sbag0
(g46
g2
Ntp4129
Rp4130
(dp4131
g50
g680
sg55
Nsg41
Nsg56
V^(\u005c(?(A[glmru]|B[ahikr]|C[adeflmnorsu]|D[bsy]|E[rsu]|F[elmr]|G[ade]|H[efgos]|I[r][1-9]?|L[airuv]|M[dgnot]|N[abdeip]|Os|P[abdmotu]|R[abefghnu]|S[bcegimnr]|T[abehil]|U(u[opst])|Xe|Yb|Z[nr])\u005c)?([\u005cd.]+)?)+$
p4132
sg42
(lp4133
sg44
I01
sbag0
(g46
g2
Ntp4134
Rp4135
(dp4136
g50
g688
sg55
Nsg41
Nsg56
V^((\u005c(?\u005cd{2,3}\u005c)?)?(Fe|Ti|Mg|Ru|Cd|Se)\u005c(?(\u005cd\u005cd?|[IV]+)?\u005c)?((O|Hg)\u005c(?\u005cd?\u005cd?\u005c)?)?)+(\u005c(?\u005cd?[\u005c+\u005c-]\u005cd?\u005c)?)?$
p4137
sg42
(lp4138
sg44
I01
sbag0
(g46
g2
Ntp4139
Rp4140
(dp4141
g50
g696
sg55
Nsg41
Nsg56
V(NaOH|CaCl\u005cd?\u005cd?|EtOH|EtAc|MeOH|CF\u005cd|C\u005cd?\u005cd?H\u005cd\u005cd?)+$
p4142
sg42
(lp4143
sg44
I01
sbag0
(g46
g2
Ntp4144
Rp4145
(dp4146
g50
g704
sg55
Nsg41
Nsg56
V(NO\u005cd|BH4|Ca\u005c(2\u005c+\u005c)|Ti\u005c(0\u005c)2|\u005c(CH3\u005c)2CHOH|\u005c(CH3\u005c)2CO|\u005c(CH3\u005c)2NCOH|C2H5CN|CH2ClCH2Cl|CH3C6H5|CH3CN|CH3CO2H|CH3COCH3|CH3COOH|CH3NHCOH|CH3Ph|CH3SOCH3|Cl2CH2|ClCH2CH2Cl)
p4147
sg42
(lp4148
sg44
I01
sbag0
(g46
g2
Ntp4149
Rp4150
(dp4151
g50
g712
sg55
Nsg41
Nsg56
V^(\u005c(CD3\u005c)2CO|\u005c(CDCl2\u005c)2|C6D6|C2D5CN|CD2Cl2|CD3CN|CD3COCD3|CD3OD|CD3SOCD3|CDCl3|CH3OD|D2O|EtOD|MeOD)$
p4152
sg42
(lp4153
sg44
I01
sbag0
(g46
g2
Ntp4154
Rp4155
(dp4156
g50
g720
sg55
Nsg41
Nsg56
V^[\u005c[\u005c{\u005c(].*(NH\u005cd|H2O|NO\u005cd|C\u005cd?H\u005cd|C\u2013H|NBu4|CF3|CD3|CO2|[bp]i?py|\u005c(CO\u005c)|\u005cd,\u005cd['\u2032]?-|BF4|PF6|Cl\u005cd|Fe\u005cd|Ph\u005cd).*[\u005c]\u005c}\u005c)].*$
p4157
sg42
(lp4158
sg44
I01
sbag0
(g46
g2
Ntp4159
Rp4160
(dp4161
g50
g728
sg55
Nsg41
Nsg56
V^[\u005c[\u005c{\u005c(]{1,2}(Ru|Ph|Py|Cu|Ir|Pt|Et\u005cd).*[\u005c]\u005c}\u005c)]$
p4162
sg42
(lp4163
sg44
I01
sbag0
(g46
g2
Ntp4164
Rp4165
(dp4166
g50
g736
sg55
Nsg41
Nsg56
V^(GABA|NO|\u005c(\u005cd\u005c)H|KCl)$
p4167
sg42
(lp4168
sg44
I01
sbag0
(g362
g2
Ntp4169
Rp4170
(dp4171
g39
g743
sg41
Nsg42
(lp4172
sg44
I01
sbag0
(g76
g2
Ntp4173
Rp4174
(dp4175
g39
g748
sg41
Nsg42
(lp4176
sg44
I01
sbag0
(g76
g2
Ntp4177
Rp4178
(dp4179
g39
g753
sg41
Nsg42
(lp4180
sg44
I01
sbag0
(g76
g2
Ntp4181
Rp4182
(dp4183
g39
g758
sg41
Nsg42
(lp4184
sg44
I01
sbag0
(g76
g2
Ntp4185
Rp4186
(dp4187
g39
g763
sg41
Nsg42
(lp4188
sg44
I01
sbag0
(g76
g2
Ntp4189
Rp4190
(dp4191
g39
g768
sg41
Nsg42
(lp4192
sg44
I01
sbag0
(g76
g2
Ntp4193
Rp4194
(dp4195
g39
g773
sg41
Nsg42
(lp4196
sg44
I01
sbag0
(g76
g2
Ntp4197
Rp4198
(dp4199
g39
g778
sg41
Nsg42
(lp4200
sg44
I01
sbag0
(g76
g2
Ntp4201
Rp4202
(dp4203
g39
g783
sg41
Nsg42
(lp4204
sg44
I01
sbag0
(g76
g2
Ntp4205
Rp4206
(dp4207
g39
g788
sg41
Nsg42
(lp4208
sg44
I01
sbag0
(g76
g2
Ntp4209
Rp4210
(dp4211
g39
g793
sg41
Nsg42
(lp4212
sg44
I01
sbag0
(g362
g2
Ntp4213
Rp4214
(dp4215
g39
g798
sg41
Nsg42
(lp4216
sg44
I01
sbag0
(g16
g2
Ntp4217
Rp4218
(dp4219
g20
(lp4220
g0
(g76
g2
Ntp4221
Rp4222
(dp4223
g39
g807
sg41
Nsg42
(lp4224
sg44
I01
sbag0
(g63
g2
Ntp4225
Rp4226
(dp4227
g20
(lp4228
g0
(g76
g2
Ntp4229
Rp4230
(dp4231
g39
g816
sg41
Nsg42
(lp4232
sg44
I01
sbag0
(g76
g2
Ntp4233
Rp4234
(dp4235
g39
g821
sg41
Nsg42
(lp4236
sg44
I01
sbasg41
Nsg42
(lp4237
sg44
I01
sbasg41
Nsg42
(lp4238
sg44
I01
sbag0
(g362
g2
Ntp4239
Rp4240
(dp4241
g39
g798
sg41
Nsg42
(lp4242
sg44
I01
sbag0
(g76
g2
Ntp4243
Rp4244
(dp4245
g39
g832
sg41
Nsg42
(lp4246
sg44
I01
sbag0
(g16
g2
Ntp4247
Rp4248
(dp4249
g20
(lp4250
g0
(g76
g2
Ntp4251
Rp4252
(dp4253
g39
g841
sg41
Nsg42
(lp4254
sg44
I01
sbag0
(g46
g2
Ntp4255
Rp4256
(dp4257
g50
g182
sg55
Nsg41
Nsg56
V\u005c-
p4258
sg42
(lp4259
sg44
I01
sbag0
(g76
g2
Ntp4260
Rp4261
(dp4262
g39
g851
sg41
Nsg42
(lp4263
sg44
I01
sbasg41
Nsg42
(lp4264
sg44
I01
sbag0
(g46
g2
Ntp4265
Rp4266
(dp4267
g50
g858
sg55
Nsg41
Nsg56
V^(\u005c(?(A[glmru]|B[ahikr\u005c\u2032]|C[adeflmnorsu]|D[bsy]|E[rsu]|F[elmr]|G[ade]|H([fgos]|REE)|I[r]|L([ainruv]|REE)|M[dgnot]|N[abdeip]|O|P[abdmotu]|R([abefghnu]|E[EMOY]?)|S[bcegimnr]|T[abehil]|U(u[opst])|V|W|Xe|Yb?|Z[nr])\u005c)?(x|(1-x)|y|(1-y)|[\u005cd.]+)?)+$
p4268
sg42
(lp4269
sg44
I01
sbag0
(g46
g2
Ntp4270
Rp4271
(dp4272
g50
g866
sg55
Nsg41
Nsg56
V^((A[glmru]|B[ahikr]|C[adeflmnorsu]|D[bsy]|E[rsu]|F[elmr]|G[ade]|H[efgos]|I[r]|L[airuv]|M[dgnot]|N[abdeip]|Os|P[abdmotu]|R[abefghnu]|S[bcegimnr]|T[abehil]|U(u[opst])?|Xe|Yb|Z[nr])(x|(1-x)|(2-x)|(3-x)|y|(1-y)|(2-y)|(3-y)[\u005cd.]+)?)+$
p4273
sg42
(lp4274
sg44
I01
sbasg41
Nsg42
(lp4275
sg44
I01
sbag0
(g22
g2
Ntp4276
Rp4277
(dp4278
g26
g874
sg41
Nsg42
(lp4279
sg44
I01
sbag0
(g31
g2
Ntp4280
Rp4281
(dp4282
g26
g942
sg41
Nsg42
(lp4283
sg44
I01
sbasg41
g3895
sg42
(lp4284
g949
ag950
asg44
I01
sbag0
(g76
g2
Ntp4285
Rp4286
(dp4287
g42
(lp4288
sg41
Nsg39
g3874
sg44
I01
sbag0
(g76
g2
Ntp4289
Rp4290
(dp4291
g42
(lp4292
sg41
Nsg39
g3875
sg44
I01
sbag0
(g76
g2
Ntp4293
Rp4294
(dp4295
g42
(lp4296
sg41
Nsg39
g3876
sg44
I01
sbag0
(g76
g2
Ntp4297
Rp4298
(dp4299
g42
(lp4300
sg41
Nsg39
g3877
sg44
I01
sbag0
(g76
g2
Ntp4301
Rp4302
(dp4303
g42
(lp4304
sg41
Nsg39
g3878
sg44
I01
sbag0
(g76
g2
Ntp4305
Rp4306
(dp4307
g42
(lp4308
sg41
Nsg39
g3879
sg44
I01
sbag0
(g76
g2
Ntp4309
Rp4310
(dp4311
g42
(lp4312
sg41
Nsg39
g3880
sg44
I01
sbag0
(g76
g2
Ntp4313
Rp4314
(dp4315
g42
(lp4316
sg41
Nsg39
g3881
sg44
I01
sbag0
(g76
g2
Ntp4317
Rp4318
(dp4319
g42
(lp4320
sg41
Nsg39
g3882
sg44
I01
sbag0
(g63
g2
Ntp4321
Rp4322
(dp4323
g20
(lp4324
g0
(g16
g2
Ntp4325
Rp4326
(dp4327
g20
(lp4328
g0
(g76
g2
Ntp4329
Rp4330
(dp4331
g39
g963
sg41
Nsg42
(lp4332
sg44
I01
sbag0
(g76
g2
Ntp4333
Rp4334
(dp4335
g39
g968
sg41
Nsg42
(lp4336
sg44
I01
sbag0
(g22
g2
Ntp4337
Rp4338
(dp4339
g26
g973
sg41
Nsg42
(lp4340
sg44
I01
sbag0
(g22
g2
Ntp4341
Rp4342
(dp4343
g26
g999
sg41
Nsg42
(lp4344
sg44
I01
sbag0
(g22
g2
Ntp4345
Rp4346
(dp4347
g26
g1010
sg41
Nsg42
(lp4348
sg44
I01
sbasg41
Nsg42
(lp4349
sg44
I01
sbag0
(g46
g2
Ntp4350
Rp4351
(dp4352
g50
g1003
sg55
Nsg41
Nsg56
g1001
sg42
(lp4353
sg44
I01
sbasg41
g3903
sg42
(lp4354
g949
asg44
I01
sbag0
(g76
g2
Ntp4355
Rp4356
(dp4357
g42
(lp4358
sg41
Nsg39
g3867
sg44
I01
sbag0
(g46
g2
Ntp4359
Rp4360
(dp4361
g50
g1027
sg55
Nsg41
g3911
sg56
g1025
sg42
(lp4362
sg44
I01
sbag0
(g46
g2
Ntp4363
Rp4364
(dp4365
g50
g1035
sg55
Nsg41
g3918
sg56
g1033
sg42
(lp4366
g1038
asg44
I01
sbag0
(g76
g2
Ntp4367
Rp4368
(dp4369
g42
(lp4370
sg41
Nsg39
g1496
sg44
I01
sbasg41
g1937
sg42
(lp4371
sg44
I01
sbsg1509
I4
sg1939
g4004
sg1510
g3944
sbsg1510
g3944
sba(ichemdataextractor.relex.cluster
Cluster
p4372
(dp4373
g1406
F1.0
sg1389
(lp4374
g0
(g1408
g2
Ntp4375
Rp4376
(dp4377
g1412
(dp4378
g1414
(dp4379
g1416
(lp4380
g1418
assg1419
(dp4381
g1416
(lp4382
g1496
assS'middle_2'
p4383
(dp4384
g1416
(lp4385
V\u223c
p4386
assS'middle_3'
p4387
(dp4388
g1416
(lp4389
g1418
assS'middle_1'
p4390
(dp4391
g1416
(lp4392
Vis
p4393
aVprobably
p4394
aVthe
p4395
aVmost
p4396
aVstudied
p4397
aVhalf
p4398
aVmetal
p4399
aVbecause
p4400
aVof
p4401
aVit
p4402
aVhigh
p4403
asssg1440
VMagnetite ( Fe3O4 ) is probably the most studied half metal because of it high Curie temperature ( \u223c 858 K ) , which is critical for device applications .
p4404
sg1396
(lp4405
g0
(g1443
g2
Ntp4406
Rp4407
(dp4408
g14
(g0
(g1447
g2
Ntp4409
Rp4410
(dp4411
g1451
VMagnetite ( Fe3O4 )
p4412
sg1453
g0
(g16
g2
Ntp4413
Rp4414
(dp4415
g20
g21
sg41
Vname_1
p4416
sg42
g948
sg44
I01
sbsg1458
I4
sg1459
I0
sbg0
(g1447
g2
Ntp4417
Rp4418
(dp4419
g1451
VCurie temperature (
p4420
sg1453
g0
(g63
g2
Ntp4421
Rp4422
(dp4423
g20
g954
sg41
S'specifier_1'
p4424
sg42
g1021
sg44
I01
sbsg1458
I18
sg1459
I15
sbg0
(g1447
g2
Ntp4425
Rp4426
(dp4427
g1451
V858
p4428
sg1453
g0
(g46
g2
Ntp4429
Rp4430
(dp4431
g50
g1027
sg55
Nsg41
S'value_1'
p4432
sg56
g1025
sg42
g1029
sg44
I01
sbsg1458
I20
sg1459
I19
sbg0
(g1447
g2
Ntp4433
Rp4434
(dp4435
g1451
g1479
sg1453
g0
(g46
g2
Ntp4436
Rp4437
(dp4438
g50
g1035
sg55
Nsg41
S'units_1'
p4439
sg56
g1033
sg42
g1037
sg44
I01
sbsg1458
I21
sg1459
I20
sbtp4440
sg1485
F1.0
sbasg1486
(lp4441
VMagnetite
p4442
ag1422
aVFe3O4
p4443
ag1496
ag4393
ag4394
ag4395
ag4396
ag4397
ag4398
ag4399
ag4400
ag4401
ag4402
ag4403
aVCurie
p4444
aVtemperature
p4445
ag1422
ag4386
aV858
p4446
ag1479
ag1496
ag2502
aVwhich
p4447
aVis
p4448
aVcritical
p4449
aVfor
p4450
aVdevice
p4451
aVapplications
p4452
ag1507
asg14
(lp4453
g4410
ag4418
ag4426
ag4434
asg1399
I1
sg1509
I4
sg1510
(lp4454
Vname
p4455
aS'specifier'
p4456
aS'value'
p4457
aS'units'
p4458
asg1516
g1517
((lp4459
tp4460
Rp4461
sg1521
I1
sbasg1391
F0.5
sg1522
(dp4462
g1414
(dp4463
g1525
I0
sg1526
(lp4464
sg1528
I1
sg1529
g1530
((lp4465
(lp4466
g1418
a(lp4467
F1.0
aF1.0
aaatp4468
Rp4469
ssg4390
(dp4470
g1525
I0
sg1526
(lp4471
sg1528
I11
sg1529
g1530
((lp4472
(lp4473
g4393
a(lp4474
F1.0
aF0.09090909090909091
aaa(lp4475
g4394
a(lp4476
F1.0
aF0.09090909090909091
aaa(lp4477
g4395
a(lp4478
F1.0
aF0.09090909090909091
aaa(lp4479
g4396
a(lp4480
F1.0
aF0.09090909090909091
aaa(lp4481
g4397
a(lp4482
F1.0
aF0.09090909090909091
aaa(lp4483
g4398
a(lp4484
F1.0
aF0.09090909090909091
aaa(lp4485
g4399
a(lp4486
F1.0
aF0.09090909090909091
aaa(lp4487
g4400
a(lp4488
F1.0
aF0.09090909090909091
aaa(lp4489
g4401
a(lp4490
F1.0
aF0.09090909090909091
aaa(lp4491
g4402
a(lp4492
F1.0
aF0.09090909090909091
aaa(lp4493
g4403
a(lp4494
F1.0
aF0.09090909090909091
aaatp4495
Rp4496
ssg4383
(dp4497
g1525
I0
sg1526
(lp4498
sg1528
I1
sg1529
g1530
((lp4499
(lp4500
g4386
a(lp4501
F1.0
aF1.0
aaatp4502
Rp4503
ssg1419
(dp4504
g1525
I0
sg1526
(lp4505
sg1528
I1
sg1529
g1530
((lp4506
(lp4507
g1496
a(lp4508
F1.0
aF1.0
aaatp4509
Rp4510
ssg4387
(dp4511
g1525
I0
sg1526
(lp4512
sg1528
I1
sg1529
g1530
((lp4513
(lp4514
g1418
a(lp4515
F1.0
aF1.0
aaatp4516
Rp4517
sssg1576
S'6'
p4518
sg14
g4453
sg56
(ichemdataextractor.relex.pattern
Pattern
p4519
(dp4520
g1485
F1.0
sg1412
(dp4521
g4387
g4388
sg1414
g4379
sg4383
g4384
sg1419
g4381
sg4390
g4391
ssg1396
g4405
sg14
g4453
sg1581
g0
(g16
g2
Ntp4522
Rp4523
(dp4524
g20
(lp4525
g0
(g16
g2
Ntp4526
Rp4527
(dp4528
g20
(lp4529
g0
(g22
g2
Ntp4530
Rp4531
(dp4532
g26
g28
sg41
Nsg42
(lp4533
sg44
I01
sbag0
(g31
g2
Ntp4534
Rp4535
(dp4536
g26
g65
sg41
Nsg42
(lp4537
sg44
I01
sbag0
(g22
g2
Ntp4538
Rp4539
(dp4540
g26
g269
sg41
Nsg42
(lp4541
sg44
I01
sbag0
(g63
g2
Ntp4542
Rp4543
(dp4544
g20
(lp4545
g0
(g16
g2
Ntp4546
Rp4547
(dp4548
g20
(lp4549
g0
(g338
g2
Ntp4550
Rp4551
(dp4552
g26
g343
sg41
Nsg42
(lp4553
sg44
I01
sbag0
(g225
g2
Ntp4554
Rp4555
(dp4556
g26
g480
sg41
Nsg42
(lp4557
sg44
I01
sbasg41
Nsg42
(lp4558
sg44
I01
sbag0
(g16
g2
Ntp4559
Rp4560
(dp4561
g20
(lp4562
g0
(g35
g2
Ntp4563
Rp4564
(dp4565
g39
g40
sg41
Nsg42
(lp4566
sg44
I01
sbag0
(g563
g2
Ntp4567
Rp4568
(dp4569
g26
g568
sg41
Nsg42
(lp4570
sg44
I01
sbasg41
Nsg42
(lp4571
sg44
I01
sbag0
(g46
g2
Ntp4572
Rp4573
(dp4574
g50
g583
sg55
Nsg41
Nsg56
g581
sg42
(lp4575
sg44
I01
sbag0
(g46
g2
Ntp4576
Rp4577
(dp4578
g50
g590
sg55
Nsg41
Nsg56
g588
sg42
(lp4579
sg44
I01
sbag0
(g46
g2
Ntp4580
Rp4581
(dp4582
g50
g597
sg55
Nsg41
Nsg56
V^BRN-?\u005cd+$
p4583
sg42
(lp4584
sg44
I01
sbag0
(g46
g2
Ntp4585
Rp4586
(dp4587
g50
g605
sg55
Nsg41
Nsg56
V^CHEMBL-?\u005cd+$
p4588
sg42
(lp4589
sg44
I01
sbag0
(g46
g2
Ntp4590
Rp4591
(dp4592
g50
g613
sg55
Nsg41
Nsg56
V^GSK-?\u005cd{3-7}$
p4593
sg42
(lp4594
sg44
I01
sbag0
(g46
g2
Ntp4595
Rp4596
(dp4597
g50
g621
sg55
Nsg41
Nsg56
V^\u005c[?(([1-9]\u005cd{2,7})|([5-9]\u005cd))-\u005cd\u005cd-\u005cd\u005c]?$
p4598
sg42
(lp4599
sg44
I01
sbag0
(g46
g2
Ntp4600
Rp4601
(dp4602
g50
g629
sg55
Nsg41
Nsg56
g627
sg42
(lp4603
sg44
I01
sbag0
(g46
g2
Ntp4604
Rp4605
(dp4606
g50
g636
sg55
Nsg41
Nsg56
g634
sg42
(lp4607
sg44
I01
sbag0
(g16
g2
Ntp4608
Rp4609
(dp4610
g20
(lp4611
g0
(g76
g2
Ntp4612
Rp4613
(dp4614
g39
g646
sg41
Nsg42
(lp4615
sg44
I01
sbag0
(g76
g2
Ntp4616
Rp4617
(dp4618
g39
g651
sg41
Nsg42
(lp4619
sg44
I01
sbasg41
Nsg42
(lp4620
sg44
I01
sbag0
(g16
g2
Ntp4621
Rp4622
(dp4623
g20
(lp4624
g0
(g76
g2
Ntp4625
Rp4626
(dp4627
g39
g661
sg41
Nsg42
(lp4628
sg44
I01
sbag0
(g76
g2
Ntp4629
Rp4630
(dp4631
g39
g651
sg41
Nsg42
(lp4632
sg44
I01
sbasg41
Nsg42
(lp4633
sg44
I01
sbag0
(g46
g2
Ntp4634
Rp4635
(dp4636
g50
g672
sg55
Nsg41
Nsg56
V^C\u005c(?\u005cd{1,3}\u005c)?(([HNOP]|Cl)\u005c(?\u005cd\u005cd?\u005c)?)+(\u005c(?\u005cd?[\u005c+\u005c-]\u005cd?\u005c)?)?$
p4637
sg42
(lp4638
sg44
I01
sbag0
(g46
g2
Ntp4639
Rp4640
(dp4641
g50
g680
sg55
Nsg41
Nsg56
V^(\u005c(?(A[glmru]|B[ahikr]|C[adeflmnorsu]|D[bsy]|E[rsu]|F[elmr]|G[ade]|H[efgos]|I[r][1-9]?|L[airuv]|M[dgnot]|N[abdeip]|Os|P[abdmotu]|R[abefghnu]|S[bcegimnr]|T[abehil]|U(u[opst])|Xe|Yb|Z[nr])\u005c)?([\u005cd.]+)?)+$
p4642
sg42
(lp4643
sg44
I01
sbag0
(g46
g2
Ntp4644
Rp4645
(dp4646
g50
g688
sg55
Nsg41
Nsg56
V^((\u005c(?\u005cd{2,3}\u005c)?)?(Fe|Ti|Mg|Ru|Cd|Se)\u005c(?(\u005cd\u005cd?|[IV]+)?\u005c)?((O|Hg)\u005c(?\u005cd?\u005cd?\u005c)?)?)+(\u005c(?\u005cd?[\u005c+\u005c-]\u005cd?\u005c)?)?$
p4647
sg42
(lp4648
sg44
I01
sbag0
(g46
g2
Ntp4649
Rp4650
(dp4651
g50
g696
sg55
Nsg41
Nsg56
V(NaOH|CaCl\u005cd?\u005cd?|EtOH|EtAc|MeOH|CF\u005cd|C\u005cd?\u005cd?H\u005cd\u005cd?)+$
p4652
sg42
(lp4653
sg44
I01
sbag0
(g46
g2
Ntp4654
Rp4655
(dp4656
g50
g704
sg55
Nsg41
Nsg56
V(NO\u005cd|BH4|Ca\u005c(2\u005c+\u005c)|Ti\u005c(0\u005c)2|\u005c(CH3\u005c)2CHOH|\u005c(CH3\u005c)2CO|\u005c(CH3\u005c)2NCOH|C2H5CN|CH2ClCH2Cl|CH3C6H5|CH3CN|CH3CO2H|CH3COCH3|CH3COOH|CH3NHCOH|CH3Ph|CH3SOCH3|Cl2CH2|ClCH2CH2Cl)
p4657
sg42
(lp4658
sg44
I01
sbag0
(g46
g2
Ntp4659
Rp4660
(dp4661
g50
g712
sg55
Nsg41
Nsg56
V^(\u005c(CD3\u005c)2CO|\u005c(CDCl2\u005c)2|C6D6|C2D5CN|CD2Cl2|CD3CN|CD3COCD3|CD3OD|CD3SOCD3|CDCl3|CH3OD|D2O|EtOD|MeOD)$
p4662
sg42
(lp4663
sg44
I01
sbag0
(g46
g2
Ntp4664
Rp4665
(dp4666
g50
g720
sg55
Nsg41
Nsg56
V^[\u005c[\u005c{\u005c(].*(NH\u005cd|H2O|NO\u005cd|C\u005cd?H\u005cd|C\u2013H|NBu4|CF3|CD3|CO2|[bp]i?py|\u005c(CO\u005c)|\u005cd,\u005cd['\u2032]?-|BF4|PF6|Cl\u005cd|Fe\u005cd|Ph\u005cd).*[\u005c]\u005c}\u005c)].*$
p4667
sg42
(lp4668
sg44
I01
sbag0
(g46
g2
Ntp4669
Rp4670
(dp4671
g50
g728
sg55
Nsg41
Nsg56
V^[\u005c[\u005c{\u005c(]{1,2}(Ru|Ph|Py|Cu|Ir|Pt|Et\u005cd).*[\u005c]\u005c}\u005c)]$
p4672
sg42
(lp4673
sg44
I01
sbag0
(g46
g2
Ntp4674
Rp4675
(dp4676
g50
g736
sg55
Nsg41
Nsg56
V^(GABA|NO|\u005c(\u005cd\u005c)H|KCl)$
p4677
sg42
(lp4678
sg44
I01
sbag0
(g362
g2
Ntp4679
Rp4680
(dp4681
g39
g743
sg41
Nsg42
(lp4682
sg44
I01
sbag0
(g76
g2
Ntp4683
Rp4684
(dp4685
g39
g748
sg41
Nsg42
(lp4686
sg44
I01
sbag0
(g76
g2
Ntp4687
Rp4688
(dp4689
g39
g753
sg41
Nsg42
(lp4690
sg44
I01
sbag0
(g76
g2
Ntp4691
Rp4692
(dp4693
g39
g758
sg41
Nsg42
(lp4694
sg44
I01
sbag0
(g76
g2
Ntp4695
Rp4696
(dp4697
g39
g763
sg41
Nsg42
(lp4698
sg44
I01
sbag0
(g76
g2
Ntp4699
Rp4700
(dp4701
g39
g768
sg41
Nsg42
(lp4702
sg44
I01
sbag0
(g76
g2
Ntp4703
Rp4704
(dp4705
g39
g773
sg41
Nsg42
(lp4706
sg44
I01
sbag0
(g76
g2
Ntp4707
Rp4708
(dp4709
g39
g778
sg41
Nsg42
(lp4710
sg44
I01
sbag0
(g76
g2
Ntp4711
Rp4712
(dp4713
g39
g783
sg41
Nsg42
(lp4714
sg44
I01
sbag0
(g76
g2
Ntp4715
Rp4716
(dp4717
g39
g788
sg41
Nsg42
(lp4718
sg44
I01
sbag0
(g76
g2
Ntp4719
Rp4720
(dp4721
g39
g793
sg41
Nsg42
(lp4722
sg44
I01
sbag0
(g362
g2
Ntp4723
Rp4724
(dp4725
g39
g798
sg41
Nsg42
(lp4726
sg44
I01
sbag0
(g16
g2
Ntp4727
Rp4728
(dp4729
g20
(lp4730
g0
(g76
g2
Ntp4731
Rp4732
(dp4733
g39
g807
sg41
Nsg42
(lp4734
sg44
I01
sbag0
(g63
g2
Ntp4735
Rp4736
(dp4737
g20
(lp4738
g0
(g76
g2
Ntp4739
Rp4740
(dp4741
g39
g816
sg41
Nsg42
(lp4742
sg44
I01
sbag0
(g76
g2
Ntp4743
Rp4744
(dp4745
g39
g821
sg41
Nsg42
(lp4746
sg44
I01
sbasg41
Nsg42
(lp4747
sg44
I01
sbasg41
Nsg42
(lp4748
sg44
I01
sbag0
(g362
g2
Ntp4749
Rp4750
(dp4751
g39
g798
sg41
Nsg42
(lp4752
sg44
I01
sbag0
(g76
g2
Ntp4753
Rp4754
(dp4755
g39
g832
sg41
Nsg42
(lp4756
sg44
I01
sbag0
(g16
g2
Ntp4757
Rp4758
(dp4759
g20
(lp4760
g0
(g76
g2
Ntp4761
Rp4762
(dp4763
g39
g841
sg41
Nsg42
(lp4764
sg44
I01
sbag0
(g46
g2
Ntp4765
Rp4766
(dp4767
g50
g182
sg55
Nsg41
Nsg56
V\u005c-
p4768
sg42
(lp4769
sg44
I01
sbag0
(g76
g2
Ntp4770
Rp4771
(dp4772
g39
g851
sg41
Nsg42
(lp4773
sg44
I01
sbasg41
Nsg42
(lp4774
sg44
I01
sbag0
(g46
g2
Ntp4775
Rp4776
(dp4777
g50
g858
sg55
Nsg41
Nsg56
V^(\u005c(?(A[glmru]|B[ahikr\u005c\u2032]|C[adeflmnorsu]|D[bsy]|E[rsu]|F[elmr]|G[ade]|H([fgos]|REE)|I[r]|L([ainruv]|REE)|M[dgnot]|N[abdeip]|O|P[abdmotu]|R([abefghnu]|E[EMOY]?)|S[bcegimnr]|T[abehil]|U(u[opst])|V|W|Xe|Yb?|Z[nr])\u005c)?(x|(1-x)|y|(1-y)|[\u005cd.]+)?)+$
p4778
sg42
(lp4779
sg44
I01
sbag0
(g46
g2
Ntp4780
Rp4781
(dp4782
g50
g866
sg55
Nsg41
Nsg56
V^((A[glmru]|B[ahikr]|C[adeflmnorsu]|D[bsy]|E[rsu]|F[elmr]|G[ade]|H[efgos]|I[r]|L[airuv]|M[dgnot]|N[abdeip]|Os|P[abdmotu]|R[abefghnu]|S[bcegimnr]|T[abehil]|U(u[opst])?|Xe|Yb|Z[nr])(x|(1-x)|(2-x)|(3-x)|y|(1-y)|(2-y)|(3-y)[\u005cd.]+)?)+$
p4783
sg42
(lp4784
sg44
I01
sbasg41
Nsg42
(lp4785
sg44
I01
sbag0
(g22
g2
Ntp4786
Rp4787
(dp4788
g26
g874
sg41
Nsg42
(lp4789
sg44
I01
sbag0
(g31
g2
Ntp4790
Rp4791
(dp4792
g26
g942
sg41
Nsg42
(lp4793
sg44
I01
sbasg41
g4416
sg42
(lp4794
g949
ag950
asg44
I01
sbag0
(g76
g2
Ntp4795
Rp4796
(dp4797
g42
(lp4798
sg41
Nsg39
g4393
sg44
I01
sbag0
(g76
g2
Ntp4799
Rp4800
(dp4801
g42
(lp4802
sg41
Nsg39
g4394
sg44
I01
sbag0
(g76
g2
Ntp4803
Rp4804
(dp4805
g42
(lp4806
sg41
Nsg39
g4395
sg44
I01
sbag0
(g76
g2
Ntp4807
Rp4808
(dp4809
g42
(lp4810
sg41
Nsg39
g4396
sg44
I01
sbag0
(g76
g2
Ntp4811
Rp4812
(dp4813
g42
(lp4814
sg41
Nsg39
g4397
sg44
I01
sbag0
(g76
g2
Ntp4815
Rp4816
(dp4817
g42
(lp4818
sg41
Nsg39
g4398
sg44
I01
sbag0
(g76
g2
Ntp4819
Rp4820
(dp4821
g42
(lp4822
sg41
Nsg39
g4399
sg44
I01
sbag0
(g76
g2
Ntp4823
Rp4824
(dp4825
g42
(lp4826
sg41
Nsg39
g4400
sg44
I01
sbag0
(g76
g2
Ntp4827
Rp4828
(dp4829
g42
(lp4830
sg41
Nsg39
g4401
sg44
I01
sbag0
(g76
g2
Ntp4831
Rp4832
(dp4833
g42
(lp4834
sg41
Nsg39
g4402
sg44
I01
sbag0
(g76
g2
Ntp4835
Rp4836
(dp4837
g42
(lp4838
sg41
Nsg39
g4403
sg44
I01
sbag0
(g63
g2
Ntp4839
Rp4840
(dp4841
g20
(lp4842
g0
(g16
g2
Ntp4843
Rp4844
(dp4845
g20
(lp4846
g0
(g76
g2
Ntp4847
Rp4848
(dp4849
g39
g963
sg41
Nsg42
(lp4850
sg44
I01
sbag0
(g76
g2
Ntp4851
Rp4852
(dp4853
g39
g968
sg41
Nsg42
(lp4854
sg44
I01
sbag0
(g22
g2
Ntp4855
Rp4856
(dp4857
g26
g973
sg41
Nsg42
(lp4858
sg44
I01
sbag0
(g22
g2
Ntp4859
Rp4860
(dp4861
g26
g999
sg41
Nsg42
(lp4862
sg44
I01
sbag0
(g22
g2
Ntp4863
Rp4864
(dp4865
g26
g1010
sg41
Nsg42
(lp4866
sg44
I01
sbasg41
Nsg42
(lp4867
sg44
I01
sbag0
(g46
g2
Ntp4868
Rp4869
(dp4870
g50
g1003
sg55
Nsg41
Nsg56
g1001
sg42
(lp4871
sg44
I01
sbasg41
g4424
sg42
(lp4872
g949
asg44
I01
sbag0
(g76
g2
Ntp4873
Rp4874
(dp4875
g42
(lp4876
sg41
Nsg39
g4386
sg44
I01
sbag0
(g46
g2
Ntp4877
Rp4878
(dp4879
g50
g1027
sg55
Nsg41
g4432
sg56
g1025
sg42
(lp4880
sg44
I01
sbag0
(g46
g2
Ntp4881
Rp4882
(dp4883
g50
g1035
sg55
Nsg41
g4439
sg56
g1033
sg42
(lp4884
g1038
asg44
I01
sbag0
(g76
g2
Ntp4885
Rp4886
(dp4887
g42
(lp4888
sg41
Nsg39
g1496
sg44
I01
sbasg41
g1937
sg42
(lp4889
sg44
I01
sbsg1509
I4
sg1939
g4518
sg1510
g4454
sbsg1510
g4454
sba(ichemdataextractor.relex.cluster
Cluster
p4890
(dp4891
g1406
F1.0
sg1389
(lp4892
g0
(g1408
g2
Ntp4893
Rp4894
(dp4895
g1412
(dp4896
g1414
(dp4897
g1416
(lp4898
g2502
assg1419
(dp4899
g1416
(lp4900
g1507
assS'middle_2'
p4901
(dp4902
g1416
(lp4903
Vof
p4904
assS'middle_3'
p4905
(dp4906
g1416
(lp4907
g1418
assS'middle_1'
p4908
(dp4909
g1416
(lp4910
Vhas
p4911
ag1434
aVhigh
p4912
aVspin
p4913
aVpolarization
p4914
ag1422
ag2500
aV95
p4915
aV%
p4916
ag1496
aVand
p4917
ag1434
asssg1440
VAs another notable spintronic material , CrO2 has a high spin polarization ( > 95 % ) and a Curie temperature of 395 K .
p4918
sg1396
(lp4919
g0
(g1443
g2
Ntp4920
Rp4921
(dp4922
g14
(g0
(g1447
g2
Ntp4923
Rp4924
(dp4925
g1451
VCrO2
p4926
sg1453
g0
(g16
g2
Ntp4927
Rp4928
(dp4929
g20
g21
sg41
Vname_1
p4930
sg42
g948
sg44
I01
sbsg1458
I7
sg1459
I6
sbg0
(g1447
g2
Ntp4931
Rp4932
(dp4933
g1451
VCurie temperature
p4934
sg1453
g0
(g63
g2
Ntp4935
Rp4936
(dp4937
g20
g954
sg41
S'specifier_1'
p4938
sg42
g1021
sg44
I01
sbsg1458
I21
sg1459
I19
sbg0
(g1447
g2
Ntp4939
Rp4940
(dp4941
g1451
V395
p4942
sg1453
g0
(g46
g2
Ntp4943
Rp4944
(dp4945
g50
g1027
sg55
Nsg41
S'value_1'
p4946
sg56
g1025
sg42
g1029
sg44
I01
sbsg1458
I23
sg1459
I22
sbg0
(g1447
g2
Ntp4947
Rp4948
(dp4949
g1451
g1479
sg1453
g0
(g46
g2
Ntp4950
Rp4951
(dp4952
g50
g1035
sg55
Nsg41
S'units_1'
p4953
sg56
g1033
sg42
g1037
sg44
I01
sbsg1458
I24
sg1459
I23
sbtp4954
sg1485
F1.0
sbasg1486
(lp4955
VAs
p4956
aVanother
p4957
aVnotable
p4958
aVspintronic
p4959
aVmaterial
p4960
ag2502
aVCrO2
p4961
ag4911
ag1434
ag4912
ag4913
ag4914
ag1422
ag2500
ag4915
ag4916
ag1496
ag4917
ag1434
aVCurie
p4962
aVtemperature
p4963
ag4904
aV395
p4964
ag1479
ag1507
asg14
(lp4965
g4924
ag4932
ag4940
ag4948
asg1399
I1
sg1509
I4
sg1510
(lp4966
Vname
p4967
aS'specifier'
p4968
aS'value'
p4969
aS'units'
p4970
asg1516
g1517
((lp4971
tp4972
Rp4973
sg1521
I1
sbasg1391
F0.5
sg1522
(dp4974
g1414
(dp4975
g1525
I0
sg1526
(lp4976
sg1528
I1
sg1529
g1530
((lp4977
(lp4978
g2502
a(lp4979
F1.0
aF1.0
aaatp4980
Rp4981
ssg4908
(dp4982
g1525
I0
sg1526
(lp4983
sg1528
I12
sg1529
g1530
((lp4984
(lp4985
g4911
a(lp4986
F1.0
aF0.08333333333333333
aaa(lp4987
g1434
a(lp4988
F2.0
aF0.16666666666666666
aaa(lp4989
g4912
a(lp4990
F1.0
aF0.08333333333333333
aaa(lp4991
g4913
a(lp4992
F1.0
aF0.08333333333333333
aaa(lp4993
g4914
a(lp4994
F1.0
aF0.08333333333333333
aaa(lp4995
g1422
a(lp4996
F1.0
aF0.08333333333333333
aaa(lp4997
g2500
a(lp4998
F1.0
aF0.08333333333333333
aaa(lp4999
g4915
a(lp5000
F1.0
aF0.08333333333333333
aaa(lp5001
g4916
a(lp5002
F1.0
aF0.08333333333333333
aaa(lp5003
g1496
a(lp5004
F1.0
aF0.08333333333333333
aaa(lp5005
g4917
a(lp5006
F1.0
aF0.08333333333333333
aaatp5007
Rp5008
ssg4901
(dp5009
g1525
I0
sg1526
(lp5010
sg1528
I1
sg1529
g1530
((lp5011
(lp5012
g4904
a(lp5013
F1.0
aF1.0
aaatp5014
Rp5015
ssg1419
(dp5016
g1525
I0
sg1526
(lp5017
sg1528
I1
sg1529
g1530
((lp5018
(lp5019
g1507
a(lp5020
F1.0
aF1.0
aaatp5021
Rp5022
ssg4905
(dp5023
g1525
I0
sg1526
(lp5024
sg1528
I1
sg1529
g1530
((lp5025
(lp5026
g1418
a(lp5027
F1.0
aF1.0
aaatp5028
Rp5029
sssg1576
S'7'
p5030
sg14
g4965
sg56
(ichemdataextractor.relex.pattern
Pattern
p5031
(dp5032
g1485
F1.0
sg1412
(dp5033
g4905
g4906
sg1414
g4897
sg4901
g4902
sg1419
g4899
sg4908
g4909
ssg1396
g4919
sg14
g4965
sg1581
g0
(g16
g2
Ntp5034
Rp5035
(dp5036
g20
(lp5037
g0
(g76
g2
Ntp5038
Rp5039
(dp5040
g42
(lp5041
sg41
Nsg39
g2502
sg44
I01
sbag0
(g16
g2
Ntp5042
Rp5043
(dp5044
g20
(lp5045
g0
(g22
g2
Ntp5046
Rp5047
(dp5048
g26
g28
sg41
Nsg42
(lp5049
sg44
I01
sbag0
(g31
g2
Ntp5050
Rp5051
(dp5052
g26
g65
sg41
Nsg42
(lp5053
sg44
I01
sbag0
(g22
g2
Ntp5054
Rp5055
(dp5056
g26
g269
sg41
Nsg42
(lp5057
sg44
I01
sbag0
(g63
g2
Ntp5058
Rp5059
(dp5060
g20
(lp5061
g0
(g16
g2
Ntp5062
Rp5063
(dp5064
g20
(lp5065
g0
(g338
g2
Ntp5066
Rp5067
(dp5068
g26
g343
sg41
Nsg42
(lp5069
sg44
I01
sbag0
(g225
g2
Ntp5070
Rp5071
(dp5072
g26
g480
sg41
Nsg42
(lp5073
sg44
I01
sbasg41
Nsg42
(lp5074
sg44
I01
sbag0
(g16
g2
Ntp5075
Rp5076
(dp5077
g20
(lp5078
g0
(g35
g2
Ntp5079
Rp5080
(dp5081
g39
g40
sg41
Nsg42
(lp5082
sg44
I01
sbag0
(g563
g2
Ntp5083
Rp5084
(dp5085
g26
g568
sg41
Nsg42
(lp5086
sg44
I01
sbasg41
Nsg42
(lp5087
sg44
I01
sbag0
(g46
g2
Ntp5088
Rp5089
(dp5090
g50
g583
sg55
Nsg41
Nsg56
g581
sg42
(lp5091
sg44
I01
sbag0
(g46
g2
Ntp5092
Rp5093
(dp5094
g50
g590
sg55
Nsg41
Nsg56
g588
sg42
(lp5095
sg44
I01
sbag0
(g46
g2
Ntp5096
Rp5097
(dp5098
g50
g597
sg55
Nsg41
Nsg56
V^BRN-?\u005cd+$
p5099
sg42
(lp5100
sg44
I01
sbag0
(g46
g2
Ntp5101
Rp5102
(dp5103
g50
g605
sg55
Nsg41
Nsg56
V^CHEMBL-?\u005cd+$
p5104
sg42
(lp5105
sg44
I01
sbag0
(g46
g2
Ntp5106
Rp5107
(dp5108
g50
g613
sg55
Nsg41
Nsg56
V^GSK-?\u005cd{3-7}$
p5109
sg42
(lp5110
sg44
I01
sbag0
(g46
g2
Ntp5111
Rp5112
(dp5113
g50
g621
sg55
Nsg41
Nsg56
V^\u005c[?(([1-9]\u005cd{2,7})|([5-9]\u005cd))-\u005cd\u005cd-\u005cd\u005c]?$
p5114
sg42
(lp5115
sg44
I01
sbag0
(g46
g2
Ntp5116
Rp5117
(dp5118
g50
g629
sg55
Nsg41
Nsg56
g627
sg42
(lp5119
sg44
I01
sbag0
(g46
g2
Ntp5120
Rp5121
(dp5122
g50
g636
sg55
Nsg41
Nsg56
g634
sg42
(lp5123
sg44
I01
sbag0
(g16
g2
Ntp5124
Rp5125
(dp5126
g20
(lp5127
g0
(g76
g2
Ntp5128
Rp5129
(dp5130
g39
g646
sg41
Nsg42
(lp5131
sg44
I01
sbag0
(g76
g2
Ntp5132
Rp5133
(dp5134
g39
g651
sg41
Nsg42
(lp5135
sg44
I01
sbasg41
Nsg42
(lp5136
sg44
I01
sbag0
(g16
g2
Ntp5137
Rp5138
(dp5139
g20
(lp5140
g0
(g76
g2
Ntp5141
Rp5142
(dp5143
g39
g661
sg41
Nsg42
(lp5144
sg44
I01
sbag0
(g76
g2
Ntp5145
Rp5146
(dp5147
g39
g651
sg41
Nsg42
(lp5148
sg44
I01
sbasg41
Nsg42
(lp5149
sg44
I01
sbag0
(g46
g2
Ntp5150
Rp5151
(dp5152
g50
g672
sg55
Nsg41
Nsg56
V^C\u005c(?\u005cd{1,3}\u005c)?(([HNOP]|Cl)\u005c(?\u005cd\u005cd?\u005c)?)+(\u005c(?\u005cd?[\u005c+\u005c-]\u005cd?\u005c)?)?$
p5153
sg42
(lp5154
sg44
I01
sbag0
(g46
g2
Ntp5155
Rp5156
(dp5157
g50
g680
sg55
Nsg41
Nsg56
V^(\u005c(?(A[glmru]|B[ahikr]|C[adeflmnorsu]|D[bsy]|E[rsu]|F[elmr]|G[ade]|H[efgos]|I[r][1-9]?|L[airuv]|M[dgnot]|N[abdeip]|Os|P[abdmotu]|R[abefghnu]|S[bcegimnr]|T[abehil]|U(u[opst])|Xe|Yb|Z[nr])\u005c)?([\u005cd.]+)?)+$
p5158
sg42
(lp5159
sg44
I01
sbag0
(g46
g2
Ntp5160
Rp5161
(dp5162
g50
g688
sg55
Nsg41
Nsg56
V^((\u005c(?\u005cd{2,3}\u005c)?)?(Fe|Ti|Mg|Ru|Cd|Se)\u005c(?(\u005cd\u005cd?|[IV]+)?\u005c)?((O|Hg)\u005c(?\u005cd?\u005cd?\u005c)?)?)+(\u005c(?\u005cd?[\u005c+\u005c-]\u005cd?\u005c)?)?$
p5163
sg42
(lp5164
sg44
I01
sbag0
(g46
g2
Ntp5165
Rp5166
(dp5167
g50
g696
sg55
Nsg41
Nsg56
V(NaOH|CaCl\u005cd?\u005cd?|EtOH|EtAc|MeOH|CF\u005cd|C\u005cd?\u005cd?H\u005cd\u005cd?)+$
p5168
sg42
(lp5169
sg44
I01
sbag0
(g46
g2
Ntp5170
Rp5171
(dp5172
g50
g704
sg55
Nsg41
Nsg56
V(NO\u005cd|BH4|Ca\u005c(2\u005c+\u005c)|Ti\u005c(0\u005c)2|\u005c(CH3\u005c)2CHOH|\u005c(CH3\u005c)2CO|\u005c(CH3\u005c)2NCOH|C2H5CN|CH2ClCH2Cl|CH3C6H5|CH3CN|CH3CO2H|CH3COCH3|CH3COOH|CH3NHCOH|CH3Ph|CH3SOCH3|Cl2CH2|ClCH2CH2Cl)
p5173
sg42
(lp5174
sg44
I01
sbag0
(g46
g2
Ntp5175
Rp5176
(dp5177
g50
g712
sg55
Nsg41
Nsg56
V^(\u005c(CD3\u005c)2CO|\u005c(CDCl2\u005c)2|C6D6|C2D5CN|CD2Cl2|CD3CN|CD3COCD3|CD3OD|CD3SOCD3|CDCl3|CH3OD|D2O|EtOD|MeOD)$
p5178
sg42
(lp5179
sg44
I01
sbag0
(g46
g2
Ntp5180
Rp5181
(dp5182
g50
g720
sg55
Nsg41
Nsg56
V^[\u005c[\u005c{\u005c(].*(NH\u005cd|H2O|NO\u005cd|C\u005cd?H\u005cd|C\u2013H|NBu4|CF3|CD3|CO2|[bp]i?py|\u005c(CO\u005c)|\u005cd,\u005cd['\u2032]?-|BF4|PF6|Cl\u005cd|Fe\u005cd|Ph\u005cd).*[\u005c]\u005c}\u005c)].*$
p5183
sg42
(lp5184
sg44
I01
sbag0
(g46
g2
Ntp5185
Rp5186
(dp5187
g50
g728
sg55
Nsg41
Nsg56
V^[\u005c[\u005c{\u005c(]{1,2}(Ru|Ph|Py|Cu|Ir|Pt|Et\u005cd).*[\u005c]\u005c}\u005c)]$
p5188
sg42
(lp5189
sg44
I01
sbag0
(g46
g2
Ntp5190
Rp5191
(dp5192
g50
g736
sg55
Nsg41
Nsg56
V^(GABA|NO|\u005c(\u005cd\u005c)H|KCl)$
p5193
sg42
(lp5194
sg44
I01
sbag0
(g362
g2
Ntp5195
Rp5196
(dp5197
g39
g743
sg41
Nsg42
(lp5198
sg44
I01
sbag0
(g76
g2
Ntp5199
Rp5200
(dp5201
g39
g748
sg41
Nsg42
(lp5202
sg44
I01
sbag0
(g76
g2
Ntp5203
Rp5204
(dp5205
g39
g753
sg41
Nsg42
(lp5206
sg44
I01
sbag0
(g76
g2
Ntp5207
Rp5208
(dp5209
g39
g758
sg41
Nsg42
(lp5210
sg44
I01
sbag0
(g76
g2
Ntp5211
Rp5212
(dp5213
g39
g763
sg41
Nsg42
(lp5214
sg44
I01
sbag0
(g76
g2
Ntp5215
Rp5216
(dp5217
g39
g768
sg41
Nsg42
(lp5218
sg44
I01
sbag0
(g76
g2
Ntp5219
Rp5220
(dp5221
g39
g773
sg41
Nsg42
(lp5222
sg44
I01
sbag0
(g76
g2
Ntp5223
Rp5224
(dp5225
g39
g778
sg41
Nsg42
(lp5226
sg44
I01
sbag0
(g76
g2
Ntp5227
Rp5228
(dp5229
g39
g783
sg41
Nsg42
(lp5230
sg44
I01
sbag0
(g76
g2
Ntp5231
Rp5232
(dp5233
g39
g788
sg41
Nsg42
(lp5234
sg44
I01
sbag0
(g76
g2
Ntp5235
Rp5236
(dp5237
g39
g793
sg41
Nsg42
(lp5238
sg44
I01
sbag0
(g362
g2
Ntp5239
Rp5240
(dp5241
g39
g798
sg41
Nsg42
(lp5242
sg44
I01
sbag0
(g16
g2
Ntp5243
Rp5244
(dp5245
g20
(lp5246
g0
(g76
g2
Ntp5247
Rp5248
(dp5249
g39
g807
sg41
Nsg42
(lp5250
sg44
I01
sbag0
(g63
g2
Ntp5251
Rp5252
(dp5253
g20
(lp5254
g0
(g76
g2
Ntp5255
Rp5256
(dp5257
g39
g816
sg41
Nsg42
(lp5258
sg44
I01
sbag0
(g76
g2
Ntp5259
Rp5260
(dp5261
g39
g821
sg41
Nsg42
(lp5262
sg44
I01
sbasg41
Nsg42
(lp5263
sg44
I01
sbasg41
Nsg42
(lp5264
sg44
I01
sbag0
(g362
g2
Ntp5265
Rp5266
(dp5267
g39
g798
sg41
Nsg42
(lp5268
sg44
I01
sbag0
(g76
g2
Ntp5269
Rp5270
(dp5271
g39
g832
sg41
Nsg42
(lp5272
sg44
I01
sbag0
(g16
g2
Ntp5273
Rp5274
(dp5275
g20
(lp5276
g0
(g76
g2
Ntp5277
Rp5278
(dp5279
g39
g841
sg41
Nsg42
(lp5280
sg44
I01
sbag0
(g46
g2
Ntp5281
Rp5282
(dp5283
g50
g182
sg55
Nsg41
Nsg56
V\u005c-
p5284
sg42
(lp5285
sg44
I01
sbag0
(g76
g2
Ntp5286
Rp5287
(dp5288
g39
g851
sg41
Nsg42
(lp5289
sg44
I01
sbasg41
Nsg42
(lp5290
sg44
I01
sbag0
(g46
g2
Ntp5291
Rp5292
(dp5293
g50
g858
sg55
Nsg41
Nsg56
V^(\u005c(?(A[glmru]|B[ahikr\u005c\u2032]|C[adeflmnorsu]|D[bsy]|E[rsu]|F[elmr]|G[ade]|H([fgos]|REE)|I[r]|L([ainruv]|REE)|M[dgnot]|N[abdeip]|O|P[abdmotu]|R([abefghnu]|E[EMOY]?)|S[bcegimnr]|T[abehil]|U(u[opst])|V|W|Xe|Yb?|Z[nr])\u005c)?(x|(1-x)|y|(1-y)|[\u005cd.]+)?)+$
p5294
sg42
(lp5295
sg44
I01
sbag0
(g46
g2
Ntp5296
Rp5297
(dp5298
g50
g866
sg55
Nsg41
Nsg56
V^((A[glmru]|B[ahikr]|C[adeflmnorsu]|D[bsy]|E[rsu]|F[elmr]|G[ade]|H[efgos]|I[r]|L[airuv]|M[dgnot]|N[abdeip]|Os|P[abdmotu]|R[abefghnu]|S[bcegimnr]|T[abehil]|U(u[opst])?|Xe|Yb|Z[nr])(x|(1-x)|(2-x)|(3-x)|y|(1-y)|(2-y)|(3-y)[\u005cd.]+)?)+$
p5299
sg42
(lp5300
sg44
I01
sbasg41
Nsg42
(lp5301
sg44
I01
sbag0
(g22
g2
Ntp5302
Rp5303
(dp5304
g26
g874
sg41
Nsg42
(lp5305
sg44
I01
sbag0
(g31
g2
Ntp5306
Rp5307
(dp5308
g26
g942
sg41
Nsg42
(lp5309
sg44
I01
sbasg41
g4930
sg42
(lp5310
g949
ag950
asg44
I01
sbag0
(g76
g2
Ntp5311
Rp5312
(dp5313
g42
(lp5314
sg41
Nsg39
g4911
sg44
I01
sbag0
(g76
g2
Ntp5315
Rp5316
(dp5317
g42
(lp5318
sg41
Nsg39
g1434
sg44
I01
sbag0
(g76
g2
Ntp5319
Rp5320
(dp5321
g42
(lp5322
sg41
Nsg39
g4912
sg44
I01
sbag0
(g76
g2
Ntp5323
Rp5324
(dp5325
g42
(lp5326
sg41
Nsg39
g4913
sg44
I01
sbag0
(g76
g2
Ntp5327
Rp5328
(dp5329
g42
(lp5330
sg41
Nsg39
g4914
sg44
I01
sbag0
(g76
g2
Ntp5331
Rp5332
(dp5333
g42
(lp5334
sg41
Nsg39
g1422
sg44
I01
sbag0
(g76
g2
Ntp5335
Rp5336
(dp5337
g42
(lp5338
sg41
Nsg39
g2500
sg44
I01
sbag0
(g76
g2
Ntp5339
Rp5340
(dp5341
g42
(lp5342
sg41
Nsg39
g4915
sg44
I01
sbag0
(g76
g2
Ntp5343
Rp5344
(dp5345
g42
(lp5346
sg41
Nsg39
g4916
sg44
I01
sbag0
(g76
g2
Ntp5347
Rp5348
(dp5349
g42
(lp5350
sg41
Nsg39
g1496
sg44
I01
sbag0
(g76
g2
Ntp5351
Rp5352
(dp5353
g42
(lp5354
sg41
Nsg39
g4917
sg44
I01
sbag0
(g76
g2
Ntp5355
Rp5356
(dp5357
g42
(lp5358
sg41
Nsg39
g1434
sg44
I01
sbag0
(g63
g2
Ntp5359
Rp5360
(dp5361
g20
(lp5362
g0
(g16
g2
Ntp5363
Rp5364
(dp5365
g20
(lp5366
g0
(g76
g2
Ntp5367
Rp5368
(dp5369
g39
g963
sg41
Nsg42
(lp5370
sg44
I01
sbag0
(g76
g2
Ntp5371
Rp5372
(dp5373
g39
g968
sg41
Nsg42
(lp5374
sg44
I01
sbag0
(g22
g2
Ntp5375
Rp5376
(dp5377
g26
g973
sg41
Nsg42
(lp5378
sg44
I01
sbag0
(g22
g2
Ntp5379
Rp5380
(dp5381
g26
g999
sg41
Nsg42
(lp5382
sg44
I01
sbag0
(g22
g2
Ntp5383
Rp5384
(dp5385
g26
g1010
sg41
Nsg42
(lp5386
sg44
I01
sbasg41
Nsg42
(lp5387
sg44
I01
sbag0
(g46
g2
Ntp5388
Rp5389
(dp5390
g50
g1003
sg55
Nsg41
Nsg56
g1001
sg42
(lp5391
sg44
I01
sbasg41
g4938
sg42
(lp5392
g949
asg44
I01
sbag0
(g76
g2
Ntp5393
Rp5394
(dp5395
g42
(lp5396
sg41
Nsg39
g4904
sg44
I01
sbag0
(g46
g2
Ntp5397
Rp5398
(dp5399
g50
g1027
sg55
Nsg41
g4946
sg56
g1025
sg42
(lp5400
sg44
I01
sbag0
(g46
g2
Ntp5401
Rp5402
(dp5403
g50
g1035
sg55
Nsg41
g4953
sg56
g1033
sg42
(lp5404
g1038
asg44
I01
sbag0
(g76
g2
Ntp5405
Rp5406
(dp5407
g42
(lp5408
sg41
Nsg39
g1507
sg44
I01
sbasg41
g1937
sg42
(lp5409
sg44
I01
sbsg1509
I4
sg1939
g5030
sg1510
g4966
sbsg1510
g4966
sba(ichemdataextractor.relex.cluster
Cluster
p5410
(dp5411
g1406
F1.0
sg1389
(lp5412
g0
(g1408
g2
Ntp5413
Rp5414
(dp5415
g1412
(dp5416
g1414
(dp5417
g1416
(lp5418
g2502
assg1419
(dp5419
g1416
(lp5420
g1496
assS'middle_2'
p5421
(dp5422
g1416
(lp5423
V\u223c
p5424
assS'middle_3'
p5425
(dp5426
g1416
(lp5427
g1418
assS'middle_1'
p5428
(dp5429
g1416
(lp5430
g1422
aVBFO
p5431
ag1496
aVhas
p5432
aVreceived
p5433
aVthe
p5434
aVmost
p5435
aVattention
p5436
ag2502
aVdue
p5437
aVto
p5438
aVits
p5439
aVhigh
p5440
aVferroelectric
p5441
asssg1440
VAmong them , BiFeO3 ( BFO ) has received the most attention , due to its high ferroelectric Curie temperature ( \u223c 1103 K ) and the AFM Neel temperature ( \u223c 647 K ) .
p5442
sg1396
(lp5443
g0
(g1443
g2
Ntp5444
Rp5445
(dp5446
g14
(g0
(g1447
g2
Ntp5447
Rp5448
(dp5449
g1451
VBiFeO3
p5450
sg1453
g0
(g16
g2
Ntp5451
Rp5452
(dp5453
g20
g21
sg41
Vname_1
p5454
sg42
g948
sg44
I01
sbsg1458
I4
sg1459
I3
sbg0
(g1447
g2
Ntp5455
Rp5456
(dp5457
g1451
VCurie temperature (
p5458
sg1453
g0
(g63
g2
Ntp5459
Rp5460
(dp5461
g20
g954
sg41
S'specifier_1'
p5462
sg42
g1021
sg44
I01
sbsg1458
I21
sg1459
I18
sbg0
(g1447
g2
Ntp5463
Rp5464
(dp5465
g1451
V1103
p5466
sg1453
g0
(g46
g2
Ntp5467
Rp5468
(dp5469
g50
g1027
sg55
Nsg41
S'value_1'
p5470
sg56
g1025
sg42
g1029
sg44
I01
sbsg1458
I23
sg1459
I22
sbg0
(g1447
g2
Ntp5471
Rp5472
(dp5473
g1451
g1479
sg1453
g0
(g46
g2
Ntp5474
Rp5475
(dp5476
g50
g1035
sg55
Nsg41
S'units_1'
p5477
sg56
g1033
sg42
g1037
sg44
I01
sbsg1458
I24
sg1459
I23
sbtp5478
sg1485
F1.0
sbasg1486
(lp5479
VAmong
p5480
aVthem
p5481
ag2502
aVBiFeO3
p5482
ag1422
ag5431
ag1496
ag5432
ag5433
ag5434
ag5435
ag5436
ag2502
ag5437
ag5438
ag5439
ag5440
ag5441
aVCurie
p5483
aVtemperature
p5484
ag1422
ag5424
aV1103
p5485
ag1479
ag1496
aVand
p5486
aVthe
p5487
aVAFM
p5488
aVNeel
p5489
aVtemperature
p5490
ag1422
aV\u223c
p5491
aV647
p5492
ag1479
ag1496
ag1507
asg14
(lp5493
g5448
ag5456
ag5464
ag5472
asg1399
I1
sg1509
I4
sg1510
(lp5494
Vname
p5495
aS'specifier'
p5496
aS'value'
p5497
aS'units'
p5498
asg1516
g1517
((lp5499
tp5500
Rp5501
sg1521
I1
sbasg1391
F0.5
sg1522
(dp5502
g1414
(dp5503
g1525
I0
sg1526
(lp5504
sg1528
I1
sg1529
g1530
((lp5505
(lp5506
g2502
a(lp5507
F1.0
aF1.0
aaatp5508
Rp5509
ssg5428
(dp5510
g1525
I0
sg1526
(lp5511
sg1528
I14
sg1529
g1530
((lp5512
(lp5513
g1422
a(lp5514
F1.0
aF0.07142857142857142
aaa(lp5515
g5431
a(lp5516
F1.0
aF0.07142857142857142
aaa(lp5517
g1496
a(lp5518
F1.0
aF0.07142857142857142
aaa(lp5519
g5432
a(lp5520
F1.0
aF0.07142857142857142
aaa(lp5521
g5433
a(lp5522
F1.0
aF0.07142857142857142
aaa(lp5523
g5434
a(lp5524
F1.0
aF0.07142857142857142
aaa(lp5525
g5435
a(lp5526
F1.0
aF0.07142857142857142
aaa(lp5527
g5436
a(lp5528
F1.0
aF0.07142857142857142
aaa(lp5529
g2502
a(lp5530
F1.0
aF0.07142857142857142
aaa(lp5531
g5437
a(lp5532
F1.0
aF0.07142857142857142
aaa(lp5533
g5438
a(lp5534
F1.0
aF0.07142857142857142
aaa(lp5535
g5439
a(lp5536
F1.0
aF0.07142857142857142
aaa(lp5537
g5440
a(lp5538
F1.0
aF0.07142857142857142
aaa(lp5539
g5441
a(lp5540
F1.0
aF0.07142857142857142
aaatp5541
Rp5542
ssg5421
(dp5543
g1525
I0
sg1526
(lp5544
sg1528
I1
sg1529
g1530
((lp5545
(lp5546
g5424
a(lp5547
F1.0
aF1.0
aaatp5548
Rp5549
ssg1419
(dp5550
g1525
I0
sg1526
(lp5551
sg1528
I1
sg1529
g1530
((lp5552
(lp5553
g1496
a(lp5554
F1.0
aF1.0
aaatp5555
Rp5556
ssg5425
(dp5557
g1525
I0
sg1526
(lp5558
sg1528
I1
sg1529
g1530
((lp5559
(lp5560
g1418
a(lp5561
F1.0
aF1.0
aaatp5562
Rp5563
sssg1576
S'8'
p5564
sg14
g5493
sg56
(ichemdataextractor.relex.pattern
Pattern
p5565
(dp5566
g1485
F1.0
sg1412
(dp5567
g5425
g5426
sg1414
g5417
sg5421
g5422
sg1419
g5419
sg5428
g5429
ssg1396
g5443
sg14
g5493
sg1581
g0
(g16
g2
Ntp5568
Rp5569
(dp5570
g20
(lp5571
g0
(g76
g2
Ntp5572
Rp5573
(dp5574
g42
(lp5575
sg41
Nsg39
g2502
sg44
I01
sbag0
(g16
g2
Ntp5576
Rp5577
(dp5578
g20
(lp5579
g0
(g22
g2
Ntp5580
Rp5581
(dp5582
g26
g28
sg41
Nsg42
(lp5583
sg44
I01
sbag0
(g31
g2
Ntp5584
Rp5585
(dp5586
g26
g65
sg41
Nsg42
(lp5587
sg44
I01
sbag0
(g22
g2
Ntp5588
Rp5589
(dp5590
g26
g269
sg41
Nsg42
(lp5591
sg44
I01
sbag0
(g63
g2
Ntp5592
Rp5593
(dp5594
g20
(lp5595
g0
(g16
g2
Ntp5596
Rp5597
(dp5598
g20
(lp5599
g0
(g338
g2
Ntp5600
Rp5601
(dp5602
g26
g343
sg41
Nsg42
(lp5603
sg44
I01
sbag0
(g225
g2
Ntp5604
Rp5605
(dp5606
g26
g480
sg41
Nsg42
(lp5607
sg44
I01
sbasg41
Nsg42
(lp5608
sg44
I01
sbag0
(g16
g2
Ntp5609
Rp5610
(dp5611
g20
(lp5612
g0
(g35
g2
Ntp5613
Rp5614
(dp5615
g39
g40
sg41
Nsg42
(lp5616
sg44
I01
sbag0
(g563
g2
Ntp5617
Rp5618
(dp5619
g26
g568
sg41
Nsg42
(lp5620
sg44
I01
sbasg41
Nsg42
(lp5621
sg44
I01
sbag0
(g46
g2
Ntp5622
Rp5623
(dp5624
g50
g583
sg55
Nsg41
Nsg56
g581
sg42
(lp5625
sg44
I01
sbag0
(g46
g2
Ntp5626
Rp5627
(dp5628
g50
g590
sg55
Nsg41
Nsg56
g588
sg42
(lp5629
sg44
I01
sbag0
(g46
g2
Ntp5630
Rp5631
(dp5632
g50
g597
sg55
Nsg41
Nsg56
V^BRN-?\u005cd+$
p5633
sg42
(lp5634
sg44
I01
sbag0
(g46
g2
Ntp5635
Rp5636
(dp5637
g50
g605
sg55
Nsg41
Nsg56
V^CHEMBL-?\u005cd+$
p5638
sg42
(lp5639
sg44
I01
sbag0
(g46
g2
Ntp5640
Rp5641
(dp5642
g50
g613
sg55
Nsg41
Nsg56
V^GSK-?\u005cd{3-7}$
p5643
sg42
(lp5644
sg44
I01
sbag0
(g46
g2
Ntp5645
Rp5646
(dp5647
g50
g621
sg55
Nsg41
Nsg56
V^\u005c[?(([1-9]\u005cd{2,7})|([5-9]\u005cd))-\u005cd\u005cd-\u005cd\u005c]?$
p5648
sg42
(lp5649
sg44
I01
sbag0
(g46
g2
Ntp5650
Rp5651
(dp5652
g50
g629
sg55
Nsg41
Nsg56
g627
sg42
(lp5653
sg44
I01
sbag0
(g46
g2
Ntp5654
Rp5655
(dp5656
g50
g636
sg55
Nsg41
Nsg56
g634
sg42
(lp5657
sg44
I01
sbag0
(g16
g2
Ntp5658
Rp5659
(dp5660
g20
(lp5661
g0
(g76
g2
Ntp5662
Rp5663
(dp5664
g39
g646
sg41
Nsg42
(lp5665
sg44
I01
sbag0
(g76
g2
Ntp5666
Rp5667
(dp5668
g39
g651
sg41
Nsg42
(lp5669
sg44
I01
sbasg41
Nsg42
(lp5670
sg44
I01
sbag0
(g16
g2
Ntp5671
Rp5672
(dp5673
g20
(lp5674
g0
(g76
g2
Ntp5675
Rp5676
(dp5677
g39
g661
sg41
Nsg42
(lp5678
sg44
I01
sbag0
(g76
g2
Ntp5679
Rp5680
(dp5681
g39
g651
sg41
Nsg42
(lp5682
sg44
I01
sbasg41
Nsg42
(lp5683
sg44
I01
sbag0
(g46
g2
Ntp5684
Rp5685
(dp5686
g50
g672
sg55
Nsg41
Nsg56
V^C\u005c(?\u005cd{1,3}\u005c)?(([HNOP]|Cl)\u005c(?\u005cd\u005cd?\u005c)?)+(\u005c(?\u005cd?[\u005c+\u005c-]\u005cd?\u005c)?)?$
p5687
sg42
(lp5688
sg44
I01
sbag0
(g46
g2
Ntp5689
Rp5690
(dp5691
g50
g680
sg55
Nsg41
Nsg56
V^(\u005c(?(A[glmru]|B[ahikr]|C[adeflmnorsu]|D[bsy]|E[rsu]|F[elmr]|G[ade]|H[efgos]|I[r][1-9]?|L[airuv]|M[dgnot]|N[abdeip]|Os|P[abdmotu]|R[abefghnu]|S[bcegimnr]|T[abehil]|U(u[opst])|Xe|Yb|Z[nr])\u005c)?([\u005cd.]+)?)+$
p5692
sg42
(lp5693
sg44
I01
sbag0
(g46
g2
Ntp5694
Rp5695
(dp5696
g50
g688
sg55
Nsg41
Nsg56
V^((\u005c(?\u005cd{2,3}\u005c)?)?(Fe|Ti|Mg|Ru|Cd|Se)\u005c(?(\u005cd\u005cd?|[IV]+)?\u005c)?((O|Hg)\u005c(?\u005cd?\u005cd?\u005c)?)?)+(\u005c(?\u005cd?[\u005c+\u005c-]\u005cd?\u005c)?)?$
p5697
sg42
(lp5698
sg44
I01
sbag0
(g46
g2
Ntp5699
Rp5700
(dp5701
g50
g696
sg55
Nsg41
Nsg56
V(NaOH|CaCl\u005cd?\u005cd?|EtOH|EtAc|MeOH|CF\u005cd|C\u005cd?\u005cd?H\u005cd\u005cd?)+$
p5702
sg42
(lp5703
sg44
I01
sbag0
(g46
g2
Ntp5704
Rp5705
(dp5706
g50
g704
sg55
Nsg41
Nsg56
V(NO\u005cd|BH4|Ca\u005c(2\u005c+\u005c)|Ti\u005c(0\u005c)2|\u005c(CH3\u005c)2CHOH|\u005c(CH3\u005c)2CO|\u005c(CH3\u005c)2NCOH|C2H5CN|CH2ClCH2Cl|CH3C6H5|CH3CN|CH3CO2H|CH3COCH3|CH3COOH|CH3NHCOH|CH3Ph|CH3SOCH3|Cl2CH2|ClCH2CH2Cl)
p5707
sg42
(lp5708
sg44
I01
sbag0
(g46
g2
Ntp5709
Rp5710
(dp5711
g50
g712
sg55
Nsg41
Nsg56
V^(\u005c(CD3\u005c)2CO|\u005c(CDCl2\u005c)2|C6D6|C2D5CN|CD2Cl2|CD3CN|CD3COCD3|CD3OD|CD3SOCD3|CDCl3|CH3OD|D2O|EtOD|MeOD)$
p5712
sg42
(lp5713
sg44
I01
sbag0
(g46
g2
Ntp5714
Rp5715
(dp5716
g50
g720
sg55
Nsg41
Nsg56
V^[\u005c[\u005c{\u005c(].*(NH\u005cd|H2O|NO\u005cd|C\u005cd?H\u005cd|C\u2013H|NBu4|CF3|CD3|CO2|[bp]i?py|\u005c(CO\u005c)|\u005cd,\u005cd['\u2032]?-|BF4|PF6|Cl\u005cd|Fe\u005cd|Ph\u005cd).*[\u005c]\u005c}\u005c)].*$
p5717
sg42
(lp5718
sg44
I01
sbag0
(g46
g2
Ntp5719
Rp5720
(dp5721
g50
g728
sg55
Nsg41
Nsg56
V^[\u005c[\u005c{\u005c(]{1,2}(Ru|Ph|Py|Cu|Ir|Pt|Et\u005cd).*[\u005c]\u005c}\u005c)]$
p5722
sg42
(lp5723
sg44
I01
sbag0
(g46
g2
Ntp5724
Rp5725
(dp5726
g50
g736
sg55
Nsg41
Nsg56
V^(GABA|NO|\u005c(\u005cd\u005c)H|KCl)$
p5727
sg42
(lp5728
sg44
I01
sbag0
(g362
g2
Ntp5729
Rp5730
(dp5731
g39
g743
sg41
Nsg42
(lp5732
sg44
I01
sbag0
(g76
g2
Ntp5733
Rp5734
(dp5735
g39
g748
sg41
Nsg42
(lp5736
sg44
I01
sbag0
(g76
g2
Ntp5737
Rp5738
(dp5739
g39
g753
sg41
Nsg42
(lp5740
sg44
I01
sbag0
(g76
g2
Ntp5741
Rp5742
(dp5743
g39
g758
sg41
Nsg42
(lp5744
sg44
I01
sbag0
(g76
g2
Ntp5745
Rp5746
(dp5747
g39
g763
sg41
Nsg42
(lp5748
sg44
I01
sbag0
(g76
g2
Ntp5749
Rp5750
(dp5751
g39
g768
sg41
Nsg42
(lp5752
sg44
I01
sbag0
(g76
g2
Ntp5753
Rp5754
(dp5755
g39
g773
sg41
Nsg42
(lp5756
sg44
I01
sbag0
(g76
g2
Ntp5757
Rp5758
(dp5759
g39
g778
sg41
Nsg42
(lp5760
sg44
I01
sbag0
(g76
g2
Ntp5761
Rp5762
(dp5763
g39
g783
sg41
Nsg42
(lp5764
sg44
I01
sbag0
(g76
g2
Ntp5765
Rp5766
(dp5767
g39
g788
sg41
Nsg42
(lp5768
sg44
I01
sbag0
(g76
g2
Ntp5769
Rp5770
(dp5771
g39
g793
sg41
Nsg42
(lp5772
sg44
I01
sbag0
(g362
g2
Ntp5773
Rp5774
(dp5775
g39
g798
sg41
Nsg42
(lp5776
sg44
I01
sbag0
(g16
g2
Ntp5777
Rp5778
(dp5779
g20
(lp5780
g0
(g76
g2
Ntp5781
Rp5782
(dp5783
g39
g807
sg41
Nsg42
(lp5784
sg44
I01
sbag0
(g63
g2
Ntp5785
Rp5786
(dp5787
g20
(lp5788
g0
(g76
g2
Ntp5789
Rp5790
(dp5791
g39
g816
sg41
Nsg42
(lp5792
sg44
I01
sbag0
(g76
g2
Ntp5793
Rp5794
(dp5795
g39
g821
sg41
Nsg42
(lp5796
sg44
I01
sbasg41
Nsg42
(lp5797
sg44
I01
sbasg41
Nsg42
(lp5798
sg44
I01
sbag0
(g362
g2
Ntp5799
Rp5800
(dp5801
g39
g798
sg41
Nsg42
(lp5802
sg44
I01
sbag0
(g76
g2
Ntp5803
Rp5804
(dp5805
g39
g832
sg41
Nsg42
(lp5806
sg44
I01
sbag0
(g16
g2
Ntp5807
Rp5808
(dp5809
g20
(lp5810
g0
(g76
g2
Ntp5811
Rp5812
(dp5813
g39
g841
sg41
Nsg42
(lp5814
sg44
I01
sbag0
(g46
g2
Ntp5815
Rp5816
(dp5817
g50
g182
sg55
Nsg41
Nsg56
V\u005c-
p5818
sg42
(lp5819
sg44
I01
sbag0
(g76
g2
Ntp5820
Rp5821
(dp5822
g39
g851
sg41
Nsg42
(lp5823
sg44
I01
sbasg41
Nsg42
(lp5824
sg44
I01
sbag0
(g46
g2
Ntp5825
Rp5826
(dp5827
g50
g858
sg55
Nsg41
Nsg56
V^(\u005c(?(A[glmru]|B[ahikr\u005c\u2032]|C[adeflmnorsu]|D[bsy]|E[rsu]|F[elmr]|G[ade]|H([fgos]|REE)|I[r]|L([ainruv]|REE)|M[dgnot]|N[abdeip]|O|P[abdmotu]|R([abefghnu]|E[EMOY]?)|S[bcegimnr]|T[abehil]|U(u[opst])|V|W|Xe|Yb?|Z[nr])\u005c)?(x|(1-x)|y|(1-y)|[\u005cd.]+)?)+$
p5828
sg42
(lp5829
sg44
I01
sbag0
(g46
g2
Ntp5830
Rp5831
(dp5832
g50
g866
sg55
Nsg41
Nsg56
V^((A[glmru]|B[ahikr]|C[adeflmnorsu]|D[bsy]|E[rsu]|F[elmr]|G[ade]|H[efgos]|I[r]|L[airuv]|M[dgnot]|N[abdeip]|Os|P[abdmotu]|R[abefghnu]|S[bcegimnr]|T[abehil]|U(u[opst])?|Xe|Yb|Z[nr])(x|(1-x)|(2-x)|(3-x)|y|(1-y)|(2-y)|(3-y)[\u005cd.]+)?)+$
p5833
sg42
(lp5834
sg44
I01
sbasg41
Nsg42
(lp5835
sg44
I01
sbag0
(g22
g2
Ntp5836
Rp5837
(dp5838
g26
g874
sg41
Nsg42
(lp5839
sg44
I01
sbag0
(g31
g2
Ntp5840
Rp5841
(dp5842
g26
g942
sg41
Nsg42
(lp5843
sg44
I01
sbasg41
g5454
sg42
(lp5844
g949
ag950
asg44
I01
sbag0
(g76
g2
Ntp5845
Rp5846
(dp5847
g42
(lp5848
sg41
Nsg39
g1422
sg44
I01
sbag0
(g76
g2
Ntp5849
Rp5850
(dp5851
g42
(lp5852
sg41
Nsg39
Vbfo
p5853
sg44
I01
sbag0
(g76
g2
Ntp5854
Rp5855
(dp5856
g42
(lp5857
sg41
Nsg39
g1496
sg44
I01
sbag0
(g76
g2
Ntp5858
Rp5859
(dp5860
g42
(lp5861
sg41
Nsg39
g5432
sg44
I01
sbag0
(g76
g2
Ntp5862
Rp5863
(dp5864
g42
(lp5865
sg41
Nsg39
g5433
sg44
I01
sbag0
(g76
g2
Ntp5866
Rp5867
(dp5868
g42
(lp5869
sg41
Nsg39
g5434
sg44
I01
sbag0
(g76
g2
Ntp5870
Rp5871
(dp5872
g42
(lp5873
sg41
Nsg39
g5435
sg44
I01
sbag0
(g76
g2
Ntp5874
Rp5875
(dp5876
g42
(lp5877
sg41
Nsg39
g5436
sg44
I01
sbag0
(g76
g2
Ntp5878
Rp5879
(dp5880
g42
(lp5881
sg41
Nsg39
g2502
sg44
I01
sbag0
(g76
g2
Ntp5882
Rp5883
(dp5884
g42
(lp5885
sg41
Nsg39
g5437
sg44
I01
sbag0
(g76
g2
Ntp5886
Rp5887
(dp5888
g42
(lp5889
sg41
Nsg39
g5438
sg44
I01
sbag0
(g76
g2
Ntp5890
Rp5891
(dp5892
g42
(lp5893
sg41
Nsg39
g5439
sg44
I01
sbag0
(g76
g2
Ntp5894
Rp5895
(dp5896
g42
(lp5897
sg41
Nsg39
g5440
sg44
I01
sbag0
(g76
g2
Ntp5898
Rp5899
(dp5900
g42
(lp5901
sg41
Nsg39
g5441
sg44
I01
sbag0
(g63
g2
Ntp5902
Rp5903
(dp5904
g20
(lp5905
g0
(g16
g2
Ntp5906
Rp5907
(dp5908
g20
(lp5909
g0
(g76
g2
Ntp5910
Rp5911
(dp5912
g39
g963
sg41
Nsg42
(lp5913
sg44
I01
sbag0
(g76
g2
Ntp5914
Rp5915
(dp5916
g39
g968
sg41
Nsg42
(lp5917
sg44
I01
sbag0
(g22
g2
Ntp5918
Rp5919
(dp5920
g26
g973
sg41
Nsg42
(lp5921
sg44
I01
sbag0
(g22
g2
Ntp5922
Rp5923
(dp5924
g26
g999
sg41
Nsg42
(lp5925
sg44
I01
sbag0
(g22
g2
Ntp5926
Rp5927
(dp5928
g26
g1010
sg41
Nsg42
(lp5929
sg44
I01
sbasg41
Nsg42
(lp5930
sg44
I01
sbag0
(g46
g2
Ntp5931
Rp5932
(dp5933
g50
g1003
sg55
Nsg41
Nsg56
g1001
sg42
(lp5934
sg44
I01
sbasg41
g5462
sg42
(lp5935
g949
asg44
I01
sbag0
(g76
g2
Ntp5936
Rp5937
(dp5938
g42
(lp5939
sg41
Nsg39
g5424
sg44
I01
sbag0
(g46
g2
Ntp5940
Rp5941
(dp5942
g50
g1027
sg55
Nsg41
g5470
sg56
g1025
sg42
(lp5943
sg44
I01
sbag0
(g46
g2
Ntp5944
Rp5945
(dp5946
g50
g1035
sg55
Nsg41
g5477
sg56
g1033
sg42
(lp5947
g1038
asg44
I01
sbag0
(g76
g2
Ntp5948
Rp5949
(dp5950
g42
(lp5951
sg41
Nsg39
g1496
sg44
I01
sbasg41
g1937
sg42
(lp5952
sg44
I01
sbsg1509
I4
sg1939
g5564
sg1510
g5494
sbsg1510
g5494
sbasg1521
I1
sS'max_candidate_combinations'
p5953
I400
sS'middle_weight'
p5954
F0.8
sb.